ccopy_reg
_reconstructor
p1
(cneat.chromosome
FFChromosome
p2
c__builtin__
object
p3
NtRp4
(dp5
S'species_id'
p6
I19
sS'_connection_genes'
p7
(dp8
(I2
I8
tp9
g1
(cneat.genome
ConnectionGene
p10
g3
NtRp11
(dp12
S'_ConnectionGene__weight'
p13
F0.79247480294750727
sS'_ConnectionGene__in'
p14
I2
sS'_ConnectionGene__enabled'
p15
I01
sS'_ConnectionGene__out'
p16
I8
sS'_ConnectionGene__innov_number'
p17
I14
sbs(I9
I8
tp18
g1
(g10
g3
NtRp19
(dp20
g13
F0.23202203786566844
sg14
I9
sg15
I01
sg16
I8
sg17
I17
sbs(I10
I6
tp21
g1
(g10
g3
NtRp22
(dp23
g13
F-1.1129665058985458
sg14
I10
sg15
I01
sg16
I6
sg17
I33
sbs(I1
I6
tp24
g1
(g10
g3
NtRp25
(dp26
g13
F-4.4185061384078601
sg14
I1
sg15
I00
sg16
I6
sg17
I7
sbs(I2
I12
tp27
g1
(g10
g3
NtRp28
(dp29
g13
F-1.464018787605819
sg14
I2
sg15
I01
sg16
I12
sg17
I39
sbs(I9
I4
tp30
g1
(g10
g3
NtRp31
(dp32
g13
F0.97865916399474429
sg14
I9
sg15
I01
sg16
I4
sg17
I20
sbs(I3
I7
tp33
g1
(g10
g3
NtRp34
(dp35
g13
F0.3277955791312428
sg14
I3
sg15
I01
sg16
I7
sg17
I12
sbs(I2
I5
tp36
g1
(g10
g3
NtRp37
(dp38
g13
F-0.60166806392447081
sg14
I2
sg15
I00
sg16
I5
sg17
I5
sbs(I1
I11
tp39
g1
(g10
g3
NtRp40
(dp41
g13
F1
sg14
I1
sg15
I01
sg16
I11
sg17
I47
sbs(I10
I8
tp42
g1
(g10
g3
NtRp43
(dp44
g13
F1.4985491157418982
sg14
I10
sg15
I01
sg16
I8
sg17
I30
sbs(I2
I9
tp45
g1
(g10
g3
NtRp46
(dp47
g13
F-0.54862967572361909
sg14
I2
sg15
I01
sg16
I9
sg17
I18
sbs(I11
I5
tp48
g1
(g10
g3
NtRp49
(dp50
g13
F0.28545476587191349
sg14
I11
sg15
I01
sg16
I5
sg17
I38
sbs(I10
I7
tp51
g1
(g10
g3
NtRp52
(dp53
g13
F-0.4392173641743905
sg14
I10
sg15
I01
sg16
I7
sg17
I27
sbs(I12
I6
tp54
g1
(g10
g3
NtRp55
(dp56
g13
F-4.4185061384078601
sg14
I12
sg15
I01
sg16
I6
sg17
I42
sbs(I1
I5
tp57
g1
(g10
g3
NtRp58
(dp59
g13
F-4.7170604899979676
sg14
I1
sg15
I01
sg16
I5
sg17
I4
sbs(I3
I6
tp60
g1
(g10
g3
NtRp61
(dp62
g13
F5.3202651321085046
sg14
I3
sg15
I01
sg16
I6
sg17
I9
sbs(I1
I10
tp63
g1
(g10
g3
NtRp64
(dp65
g13
F0.91388263970735528
sg14
I1
sg15
I01
sg16
I10
sg17
I26
sbs(I10
I9
tp66
g1
(g10
g3
NtRp67
(dp68
g13
F0.40345924796621346
sg14
I10
sg15
I01
sg16
I9
sg17
I28
sbs(I9
I7
tp69
g1
(g10
g3
NtRp70
(dp71
g13
F0.76894423904272302
sg14
I9
sg15
I01
sg16
I7
sg17
I22
sbs(I2
I6
tp72
g1
(g10
g3
NtRp73
(dp74
g13
F-6.5939348556062942
sg14
I2
sg15
I00
sg16
I6
sg17
I8
sbs(I11
I9
tp75
g1
(g10
g3
NtRp76
(dp77
g13
F3.6056752641368255
sg14
I11
sg15
I01
sg16
I9
sg17
I48
sbs(I1
I4
tp78
g1
(g10
g3
NtRp79
(dp80
g13
F-0.53508353586291868
sg14
I1
sg15
I01
sg16
I4
sg17
I1
sbs(I2
I10
tp81
g1
(g10
g3
NtRp82
(dp83
g13
F1.7636298931039376
sg14
I2
sg15
I01
sg16
I10
sg17
I29
sbs(I1
I9
tp84
g1
(g10
g3
NtRp85
(dp86
g13
F3.6056752641368255
sg14
I1
sg15
I00
sg16
I9
sg17
I16
sbs(I3
I5
tp87
g1
(g10
g3
NtRp88
(dp89
g13
F-0.89767751046177813
sg14
I3
sg15
I01
sg16
I5
sg17
I6
sbs(I2
I7
tp90
g1
(g10
g3
NtRp91
(dp92
g13
F0.1664310315615376
sg14
I2
sg15
I01
sg16
I7
sg17
I11
sbs(I10
I5
tp93
g1
(g10
g3
NtRp94
(dp95
g13
F0.2390433286570845
sg14
I10
sg15
I01
sg16
I5
sg17
I32
sbs(I1
I12
tp96
g1
(g10
g3
NtRp97
(dp98
g13
F1
sg14
I1
sg15
I01
sg16
I12
sg17
I54
sbs(I3
I8
tp99
g1
(g10
g3
NtRp100
(dp101
g13
F-0.23838627215374047
sg14
I3
sg15
I01
sg16
I8
sg17
I15
sbs(I1
I8
tp102
g1
(g10
g3
NtRp103
(dp104
g13
F1.1744491692105858
sg14
I1
sg15
I01
sg16
I8
sg17
I13
sbs(I1
I7
tp105
g1
(g10
g3
NtRp106
(dp107
g13
F4.0145203978715305
sg14
I1
sg15
I01
sg16
I7
sg17
I10
sbs(I9
I5
tp108
g1
(g10
g3
NtRp109
(dp110
g13
F-0.075609306306494872
sg14
I9
sg15
I01
sg16
I5
sg17
I23
sbs(I3
I4
tp111
g1
(g10
g3
NtRp112
(dp113
g13
F4.0239071326022469
sg14
I3
sg15
I01
sg16
I4
sg17
I3
sbs(I2
I4
tp114
g1
(g10
g3
NtRp115
(dp116
g13
F-3.0376670259295686
sg14
I2
sg15
I01
sg16
I4
sg17
I2
sbssS'_input_nodes'
p117
I3
sS'_output_nodes'
p118
I5
sS'_node_gene_type'
p119
cneat.genome
NodeGene
p120
sS'_FFChromosome__node_order'
p121
(lp122
I11
aI10
aI12
aI9
asS'_conn_gene_type'
p123
g10
sS'fitness'
p124
F0.86046511627906974
sS'parent2_id'
p125
I2191
sS'_id'
p126
I2417
sS'parent1_id'
p127
I2191
sS'_node_genes'
p128
(lp129
g1
(g120
g3
NtRp130
(dp131
S'_bias'
p132
I0
sS'_type'
p133
S'INPUT'
p134
sg126
I1
sS'_response'
p135
F4.9242730000000003
sS'_activation_type'
p136
Nsbag1
(g120
g3
NtRp137
(dp138
g132
I0
sg133
g134
sg126
I2
sg135
F4.9242730000000003
sg136
Nsbag1
(g120
g3
NtRp139
(dp140
g132
I0
sg133
g134
sg126
I3
sg135
F4.9242730000000003
sg136
Nsbag1
(g120
g3
NtRp141
(dp142
g132
F-0.9857201752176219
sg133
S'OUTPUT'
p143
sg126
I4
sg135
F4.9242730000000003
sg136
S'tanh'
p144
sbag1
(g120
g3
NtRp145
(dp146
g132
I0
sg133
g143
sg126
I5
sg135
F4.9242730000000003
sg136
g144
sbag1
(g120
g3
NtRp147
(dp148
g132
I0
sg133
g143
sg126
I6
sg135
F4.9242730000000003
sg136
g144
sbag1
(g120
g3
NtRp149
(dp150
g132
F0.093738717938083582
sg133
g143
sg126
I7
sg135
F4.6921569009973538
sg136
g144
sbag1
(g120
g3
NtRp151
(dp152
g132
F-0.98160574880786977
sg133
g143
sg126
I8
sg135
F5.5753173040618558
sg136
g144
sbag1
(g120
g3
NtRp153
(dp154
g132
I0
sg133
S'HIDDEN'
p155
sg126
I9
sg135
F4.9242730000000003
sg136
g144
sbag1
(g120
g3
NtRp156
(dp157
g132
F0.036752622882533753
sg133
g155
sg126
I10
sg135
F4.9071603098926815
sg136
g144
sbag1
(g120
g3
NtRp158
(dp159
g132
I0
sg133
g155
sg126
I11
sg135
F4.9242730000000003
sg136
g144
sbag1
(g120
g3
NtRp160
(dp161
g132
I0
sg133
g155
sg126
I12
sg135
F4.9242730000000003
sg136
g144
sbasb.