ccopy_reg
_reconstructor
p1
(cneat.chromosome
FFChromosome
p2
c__builtin__
object
p3
NtRp4
(dp5
S'species_id'
p6
I38
sS'_connection_genes'
p7
(dp8
(I2
I8
tp9
g1
(cneat.genome
ConnectionGene
p10
g3
NtRp11
(dp12
S'_ConnectionGene__weight'
p13
F2.0576164941696309
sS'_ConnectionGene__in'
p14
I2
sS'_ConnectionGene__enabled'
p15
I01
sS'_ConnectionGene__out'
p16
I8
sS'_ConnectionGene__innov_number'
p17
I14
sbs(I3
I11
tp18
g1
(g10
g3
NtRp19
(dp20
g13
F-1.0854944663850339
sg14
I3
sg15
I01
sg16
I11
sg17
I36
sbs(I1
I6
tp21
g1
(g10
g3
NtRp22
(dp23
g13
F-8.1009777621499612
sg14
I1
sg15
I01
sg16
I6
sg17
I7
sbs(I3
I7
tp24
g1
(g10
g3
NtRp25
(dp26
g13
F12.413609086432643
sg14
I3
sg15
I01
sg16
I7
sg17
I12
sbs(I2
I5
tp27
g1
(g10
g3
NtRp28
(dp29
g13
F-7.3974351815428809
sg14
I2
sg15
I01
sg16
I5
sg17
I5
sbs(I10
I8
tp30
g1
(g10
g3
NtRp31
(dp32
g13
F-5.6408036174557763
sg14
I10
sg15
I01
sg16
I8
sg17
I31
sbs(I11
I10
tp33
g1
(g10
g3
NtRp34
(dp35
g13
F2.9721167507115092
sg14
I11
sg15
I00
sg16
I10
sg17
I37
sbs(I10
I7
tp36
g1
(g10
g3
NtRp37
(dp38
g13
F-0.851807871546993
sg14
I10
sg15
I01
sg16
I7
sg17
I29
sbs(I3
I10
tp39
g1
(g10
g3
NtRp40
(dp41
g13
F5.2693501072226105
sg14
I3
sg15
I00
sg16
I10
sg17
I30
sbs(I1
I5
tp42
g1
(g10
g3
NtRp43
(dp44
g13
F1.3735929920349328
sg14
I1
sg15
I01
sg16
I5
sg17
I4
sbs(I3
I6
tp45
g1
(g10
g3
NtRp46
(dp47
g13
F0.29999034177585093
sg14
I3
sg15
I01
sg16
I6
sg17
I9
sbs(I11
I13
tp48
g1
(g10
g3
NtRp49
(dp50
g13
F-1.7316300418056458
sg14
I11
sg15
I01
sg16
I13
sg17
I86
sbs(I2
I6
tp51
g1
(g10
g3
NtRp52
(dp53
g13
F-4.0907296934063115
sg14
I2
sg15
I01
sg16
I6
sg17
I8
sbs(I10
I4
tp54
g1
(g10
g3
NtRp55
(dp56
g13
F-0.65774862765659847
sg14
I10
sg15
I01
sg16
I4
sg17
I39
sbs(I1
I4
tp57
g1
(g10
g3
NtRp58
(dp59
g13
F-2.3770301825559672
sg14
I1
sg15
I01
sg16
I4
sg17
I1
sbs(I1
I9
tp60
g1
(g10
g3
NtRp61
(dp62
g13
F-3.2733652507800683
sg14
I1
sg15
I01
sg16
I9
sg17
I18
sbs(I13
I10
tp63
g1
(g10
g3
NtRp64
(dp65
g13
F3.079696069612921
sg14
I13
sg15
I01
sg16
I10
sg17
I87
sbs(I3
I5
tp66
g1
(g10
g3
NtRp67
(dp68
g13
F-2.4183147398564717
sg14
I3
sg15
I01
sg16
I5
sg17
I6
sbs(I2
I7
tp69
g1
(g10
g3
NtRp70
(dp71
g13
F0.041163530021688599
sg14
I2
sg15
I01
sg16
I7
sg17
I11
sbs(I1
I12
tp72
g1
(g10
g3
NtRp73
(dp74
g13
F-2.0999529064087366
sg14
I1
sg15
I01
sg16
I12
sg17
I34
sbs(I3
I8
tp75
g1
(g10
g3
NtRp76
(dp77
g13
F-0.41310846308058946
sg14
I3
sg15
I01
sg16
I8
sg17
I15
sbs(I1
I8
tp78
g1
(g10
g3
NtRp79
(dp80
g13
F-9.7998889525532
sg14
I1
sg15
I00
sg16
I8
sg17
I13
sbs(I1
I7
tp81
g1
(g10
g3
NtRp82
(dp83
g13
F2.7042529337327976
sg14
I1
sg15
I01
sg16
I7
sg17
I10
sbs(I9
I5
tp84
g1
(g10
g3
NtRp85
(dp86
g13
F3.1101162538795681
sg14
I9
sg15
I01
sg16
I5
sg17
I28
sbs(I3
I4
tp87
g1
(g10
g3
NtRp88
(dp89
g13
F1.2341829153887462
sg14
I3
sg15
I01
sg16
I4
sg17
I3
sbs(I2
I4
tp90
g1
(g10
g3
NtRp91
(dp92
g13
F-7.795671101041207
sg14
I2
sg15
I01
sg16
I4
sg17
I2
sbs(I12
I8
tp93
g1
(g10
g3
NtRp94
(dp95
g13
F-8.3263945825336556
sg14
I12
sg15
I01
sg16
I8
sg17
I46
sbssS'_input_nodes'
p96
I3
sS'_output_nodes'
p97
I5
sS'_node_gene_type'
p98
cneat.genome
NodeGene
p99
sS'_FFChromosome__node_order'
p100
(lp101
I11
aI13
aI10
aI9
aI12
asS'_conn_gene_type'
p102
g10
sS'fitness'
p103
F0.10294380888131288
sS'parent2_id'
p104
I2409
sS'_id'
p105
I2494
sS'parent1_id'
p106
I2409
sS'_node_genes'
p107
(lp108
g1
(g99
g3
NtRp109
(dp110
S'_bias'
p111
I0
sS'_type'
p112
S'INPUT'
p113
sg105
I1
sS'_response'
p114
F4.9242730000000003
sS'_activation_type'
p115
Nsbag1
(g99
g3
NtRp116
(dp117
g111
I0
sg112
g113
sg105
I2
sg114
F4.9242730000000003
sg115
Nsbag1
(g99
g3
NtRp118
(dp119
g111
I0
sg112
g113
sg105
I3
sg114
F4.9242730000000003
sg115
Nsbag1
(g99
g3
NtRp120
(dp121
g111
F-0.44056295073539375
sg112
S'OUTPUT'
p122
sg105
I4
sg114
F5.8538043250956218
sg115
S'tanh'
p123
sbag1
(g99
g3
NtRp124
(dp125
g111
F-0.76011711343437538
sg112
g122
sg105
I5
sg114
F5.2172501395214077
sg115
g123
sbag1
(g99
g3
NtRp126
(dp127
g111
F0.5966362739412695
sg112
g122
sg105
I6
sg114
F5.641963099267004
sg115
g123
sbag1
(g99
g3
NtRp128
(dp129
g111
F-0.95901250785371805
sg112
g122
sg105
I7
sg114
F4.893811629872844
sg115
g123
sbag1
(g99
g3
NtRp130
(dp131
g111
F-0.17804220432746795
sg112
g122
sg105
I8
sg114
F5.9678626317408163
sg115
g123
sbag1
(g99
g3
NtRp132
(dp133
g111
I0
sg112
S'HIDDEN'
p134
sg105
I9
sg114
F5.3417277846070021
sg115
g123
sbag1
(g99
g3
NtRp135
(dp136
g111
F-0.050192088957437285
sg112
g134
sg105
I10
sg114
F4.4725829065378644
sg115
g123
sbag1
(g99
g3
NtRp137
(dp138
g111
F-0.30300708280128469
sg112
g134
sg105
I11
sg114
F4.9242730000000003
sg115
g123
sbag1
(g99
g3
NtRp139
(dp140
g111
I0
sg112
g134
sg105
I12
sg114
F4.9242730000000003
sg115
g123
sbag1
(g99
g3
NtRp141
(dp142
g111
I0
sg112
g134
sg105
I13
sg114
F4.9242730000000003
sg115
g123
sbasb.