ccopy_reg
_reconstructor
p1
(cneat.chromosome
FFChromosome
p2
c__builtin__
object
p3
NtRp4
(dp5
S'species_id'
p6
I17
sS'_connection_genes'
p7
(dp8
(I4
I7
tp9
g1
(cneat.genome
ConnectionGene
p10
g3
NtRp11
(dp12
S'_ConnectionGene__weight'
p13
F4.9535419219064982
sS'_ConnectionGene__in'
p14
I4
sS'_ConnectionGene__enabled'
p15
I01
sS'_ConnectionGene__out'
p16
I7
sS'_ConnectionGene__innov_number'
p17
I12
sbs(I4
I8
tp18
g1
(g10
g3
NtRp19
(dp20
g13
F-1.1342454708854279
sg14
I4
sg15
I00
sg16
I8
sg17
I16
sbs(I2
I8
tp21
g1
(g10
g3
NtRp22
(dp23
g13
F-0.0026493354926395707
sg14
I2
sg15
I01
sg16
I8
sg17
I14
sbs(I10
I6
tp24
g1
(g10
g3
NtRp25
(dp26
g13
F0.9318509001971812
sg14
I10
sg15
I01
sg16
I6
sg17
I22
sbs(I1
I6
tp27
g1
(g10
g3
NtRp28
(dp29
g13
F-0.93615688943750908
sg14
I1
sg15
I01
sg16
I6
sg17
I5
sbs(I3
I7
tp30
g1
(g10
g3
NtRp31
(dp32
g13
F-0.087664935402261612
sg14
I3
sg15
I01
sg16
I7
sg17
I11
sbs(I2
I5
tp33
g1
(g10
g3
NtRp34
(dp35
g13
F-0.51205733515426
sg14
I2
sg15
I01
sg16
I5
sg17
I2
sbs(I11
I10
tp36
g1
(g10
g3
NtRp37
(dp38
g13
F1.373141383825873
sg14
I11
sg15
I01
sg16
I10
sg17
I36
sbs(I4
I9
tp39
g1
(g10
g3
NtRp40
(dp41
g13
F0.27151067575110516
sg14
I4
sg15
I01
sg16
I9
sg17
I20
sbs(I2
I9
tp42
g1
(g10
g3
NtRp43
(dp44
g13
F-1.9149684178647
sg14
I2
sg15
I01
sg16
I9
sg17
I18
sbs(I1
I5
tp45
g1
(g10
g3
NtRp46
(dp47
g13
F-1.584245326030556
sg14
I1
sg15
I01
sg16
I5
sg17
I1
sbs(I3
I6
tp48
g1
(g10
g3
NtRp49
(dp50
g13
F-0.74693740687741128
sg14
I3
sg15
I01
sg16
I6
sg17
I7
sbs(I1
I10
tp51
g1
(g10
g3
NtRp52
(dp53
g13
F2.2102173696706067
sg14
I1
sg15
I01
sg16
I10
sg17
I21
sbs(I10
I9
tp54
g1
(g10
g3
NtRp55
(dp56
g13
F-6.555076904699213
sg14
I10
sg15
I01
sg16
I9
sg17
I24
sbs(I2
I6
tp57
g1
(g10
g3
NtRp58
(dp59
g13
F1.16225325283835
sg14
I2
sg15
I01
sg16
I6
sg17
I6
sbs(I4
I5
tp60
g1
(g10
g3
NtRp61
(dp62
g13
F1.2347556139930971
sg14
I4
sg15
I01
sg16
I5
sg17
I4
sbs(I2
I10
tp63
g1
(g10
g3
NtRp64
(dp65
g13
F-2.0690462348557546
sg14
I2
sg15
I01
sg16
I10
sg17
I23
sbs(I3
I9
tp66
g1
(g10
g3
NtRp67
(dp68
g13
F-2.9309272824764756
sg14
I3
sg15
I01
sg16
I9
sg17
I19
sbs(I1
I9
tp69
g1
(g10
g3
NtRp70
(dp71
g13
F-1.9172065640209022
sg14
I1
sg15
I00
sg16
I9
sg17
I17
sbs(I4
I11
tp72
g1
(g10
g3
NtRp73
(dp74
g13
F0.58930210024867591
sg14
I4
sg15
I01
sg16
I11
sg17
I43
sbs(I3
I5
tp75
g1
(g10
g3
NtRp76
(dp77
g13
F1.0826950148015595
sg14
I3
sg15
I01
sg16
I5
sg17
I3
sbs(I2
I7
tp78
g1
(g10
g3
NtRp79
(dp80
g13
F-1.9900599307782634
sg14
I2
sg15
I01
sg16
I7
sg17
I10
sbs(I4
I6
tp81
g1
(g10
g3
NtRp82
(dp83
g13
F2.5378512948880689
sg14
I4
sg15
I01
sg16
I6
sg17
I8
sbs(I11
I8
tp84
g1
(g10
g3
NtRp85
(dp86
g13
F-0.057451776134265574
sg14
I11
sg15
I01
sg16
I8
sg17
I34
sbs(I3
I8
tp87
g1
(g10
g3
NtRp88
(dp89
g13
F-1.3788618017194394
sg14
I3
sg15
I01
sg16
I8
sg17
I15
sbs(I1
I8
tp90
g1
(g10
g3
NtRp91
(dp92
g13
F1.6382723084184707
sg14
I1
sg15
I01
sg16
I8
sg17
I13
sbs(I1
I7
tp93
g1
(g10
g3
NtRp94
(dp95
g13
F-0.72443288855211962
sg14
I1
sg15
I01
sg16
I7
sg17
I9
sbssS'_input_nodes'
p96
I4
sS'_output_nodes'
p97
I5
sS'_node_gene_type'
p98
cneat.genome
NodeGene
p99
sS'_FFChromosome__node_order'
p100
(lp101
I11
aI10
asS'_conn_gene_type'
p102
g10
sS'fitness'
p103
F0.23529411764705882
sS'parent2_id'
p104
I754
sS'_id'
p105
I815
sS'parent1_id'
p106
I752
sS'_node_genes'
p107
(lp108
g1
(g99
g3
NtRp109
(dp110
S'_bias'
p111
I0
sS'_type'
p112
S'INPUT'
p113
sg105
I1
sS'_response'
p114
F4.9242730000000003
sS'_activation_type'
p115
Nsbag1
(g99
g3
NtRp116
(dp117
g111
I0
sg112
g113
sg105
I2
sg114
F4.9242730000000003
sg115
Nsbag1
(g99
g3
NtRp118
(dp119
g111
I0
sg112
g113
sg105
I3
sg114
F4.9242730000000003
sg115
Nsbag1
(g99
g3
NtRp120
(dp121
g111
I0
sg112
g113
sg105
I4
sg114
F4.9242730000000003
sg115
Nsbag1
(g99
g3
NtRp122
(dp123
g111
F-0.6202073971576112
sg112
S'OUTPUT'
p124
sg105
I5
sg114
F6.0958757256731912
sg115
S'tanh'
p125
sbag1
(g99
g3
NtRp126
(dp127
g111
F-0.34346621947854461
sg112
g124
sg105
I6
sg114
F4.9242730000000003
sg115
g125
sbag1
(g99
g3
NtRp128
(dp129
g111
F0.7711687057717076
sg112
g124
sg105
I7
sg114
F4.9242730000000003
sg115
g125
sbag1
(g99
g3
NtRp130
(dp131
g111
F0.18640282184471185
sg112
g124
sg105
I8
sg114
F5.328875084116695
sg115
g125
sbag1
(g99
g3
NtRp132
(dp133
g111
I0
sg112
g124
sg105
I9
sg114
F4.3186605218207497
sg115
g125
sbag1
(g99
g3
NtRp134
(dp135
g111
I0
sg112
S'HIDDEN'
p136
sg105
I10
sg114
F4.9242730000000003
sg115
g125
sbag1
(g99
g3
NtRp137
(dp138
g111
I0
sg112
g136
sg105
I11
sg114
F4.9242730000000003
sg115
g125
sbasb.