ccopy_reg
_reconstructor
p1
(cneat.chromosome
FFChromosome
p2
c__builtin__
object
p3
NtRp4
(dp5
S'species_id'
p6
I5
sS'_connection_genes'
p7
(dp8
(I4
I7
tp9
g1
(cneat.genome
ConnectionGene
p10
g3
NtRp11
(dp12
S'_ConnectionGene__weight'
p13
F2.730805853010644
sS'_ConnectionGene__in'
p14
I4
sS'_ConnectionGene__enabled'
p15
I01
sS'_ConnectionGene__out'
p16
I7
sS'_ConnectionGene__innov_number'
p17
I12
sbs(I4
I8
tp18
g1
(g10
g3
NtRp19
(dp20
g13
F-3.8257698420955406
sg14
I4
sg15
I01
sg16
I8
sg17
I16
sbs(I2
I8
tp21
g1
(g10
g3
NtRp22
(dp23
g13
F-0.58815698275495965
sg14
I2
sg15
I01
sg16
I8
sg17
I14
sbs(I10
I6
tp24
g1
(g10
g3
NtRp25
(dp26
g13
F-2.814844274733808
sg14
I10
sg15
I01
sg16
I6
sg17
I22
sbs(I3
I11
tp27
g1
(g10
g3
NtRp28
(dp29
g13
F5.4912414482282905
sg14
I3
sg15
I01
sg16
I11
sg17
I30
sbs(I4
I12
tp30
g1
(g10
g3
NtRp31
(dp32
g13
F1
sg14
I4
sg15
I01
sg16
I12
sg17
I40
sbs(I1
I6
tp33
g1
(g10
g3
NtRp34
(dp35
g13
F0.4408351140813499
sg14
I1
sg15
I01
sg16
I6
sg17
I5
sbs(I13
I8
tp36
g1
(g10
g3
NtRp37
(dp38
g13
F-7.9717817967558613
sg14
I13
sg15
I01
sg16
I8
sg17
I57
sbs(I3
I7
tp39
g1
(g10
g3
NtRp40
(dp41
g13
F-1.5931572801556162
sg14
I3
sg15
I01
sg16
I7
sg17
I11
sbs(I2
I5
tp42
g1
(g10
g3
NtRp43
(dp44
g13
F-0.8427624711703442
sg14
I2
sg15
I01
sg16
I5
sg17
I2
sbs(I1
I11
tp45
g1
(g10
g3
NtRp46
(dp47
g13
F-7.1134983738115452
sg14
I1
sg15
I01
sg16
I11
sg17
I39
sbs(I12
I9
tp48
g1
(g10
g3
NtRp49
(dp50
g13
F-1.7714662788647106
sg14
I12
sg15
I01
sg16
I9
sg17
I45
sbs(I10
I8
tp51
g1
(g10
g3
NtRp52
(dp53
g13
F-7.9717817967558613
sg14
I10
sg15
I00
sg16
I8
sg17
I25
sbs(I4
I9
tp54
g1
(g10
g3
NtRp55
(dp56
g13
F-1.7714662788647106
sg14
I4
sg15
I00
sg16
I9
sg17
I20
sbs(I2
I9
tp57
g1
(g10
g3
NtRp58
(dp59
g13
F0.78716650267473742
sg14
I2
sg15
I01
sg16
I9
sg17
I18
sbs(I11
I5
tp60
g1
(g10
g3
NtRp61
(dp62
g13
F0.56650375973207068
sg14
I11
sg15
I01
sg16
I5
sg17
I51
sbs(I10
I7
tp63
g1
(g10
g3
NtRp64
(dp65
g13
F-7.6120701631618246
sg14
I10
sg15
I01
sg16
I7
sg17
I27
sbs(I3
I10
tp66
g1
(g10
g3
NtRp67
(dp68
g13
F-1.0247745740176926
sg14
I3
sg15
I01
sg16
I10
sg17
I29
sbs(I10
I12
tp69
g1
(g10
g3
NtRp70
(dp71
g13
F0.36223926329716216
sg14
I10
sg15
I01
sg16
I12
sg17
I55
sbs(I1
I5
tp72
g1
(g10
g3
NtRp73
(dp74
g13
F-4.4036425004947759
sg14
I1
sg15
I01
sg16
I5
sg17
I1
sbs(I3
I6
tp75
g1
(g10
g3
NtRp76
(dp77
g13
F-0.92910057851871564
sg14
I3
sg15
I00
sg16
I6
sg17
I7
sbs(I1
I10
tp78
g1
(g10
g3
NtRp79
(dp80
g13
F5.8682240893149835
sg14
I1
sg15
I01
sg16
I10
sg17
I21
sbs(I10
I9
tp81
g1
(g10
g3
NtRp82
(dp83
g13
F-7.5668002731270452
sg14
I10
sg15
I01
sg16
I9
sg17
I24
sbs(I4
I10
tp84
g1
(g10
g3
NtRp85
(dp86
g13
F2.2667234190398355
sg14
I4
sg15
I01
sg16
I10
sg17
I26
sbs(I2
I6
tp87
g1
(g10
g3
NtRp88
(dp89
g13
F0.024369996842321162
sg14
I2
sg15
I01
sg16
I6
sg17
I6
sbs(I4
I5
tp90
g1
(g10
g3
NtRp91
(dp92
g13
F-0.12553723971124975
sg14
I4
sg15
I01
sg16
I5
sg17
I4
sbs(I10
I13
tp93
g1
(g10
g3
NtRp94
(dp95
g13
F1
sg14
I10
sg15
I01
sg16
I13
sg17
I75
sbs(I3
I9
tp96
g1
(g10
g3
NtRp97
(dp98
g13
F-7.4875318249097873
sg14
I3
sg15
I01
sg16
I9
sg17
I19
sbs(I1
I9
tp99
g1
(g10
g3
NtRp100
(dp101
g13
F2.7195049093299408
sg14
I1
sg15
I00
sg16
I9
sg17
I17
sbs(I4
I11
tp102
g1
(g10
g3
NtRp103
(dp104
g13
F-1.712703376239048
sg14
I4
sg15
I01
sg16
I11
sg17
I43
sbs(I3
I5
tp105
g1
(g10
g3
NtRp106
(dp107
g13
F-0.49562943962823236
sg14
I3
sg15
I01
sg16
I5
sg17
I3
sbs(I2
I7
tp108
g1
(g10
g3
NtRp109
(dp110
g13
F0.46783724031904472
sg14
I2
sg15
I01
sg16
I7
sg17
I10
sbs(I4
I6
tp111
g1
(g10
g3
NtRp112
(dp113
g13
F5.2623670705328163
sg14
I4
sg15
I01
sg16
I6
sg17
I8
sbs(I11
I8
tp114
g1
(g10
g3
NtRp115
(dp116
g13
F0.25589886892080466
sg14
I11
sg15
I01
sg16
I8
sg17
I34
sbs(I3
I8
tp117
g1
(g10
g3
NtRp118
(dp119
g13
F2.330440009636797
sg14
I3
sg15
I01
sg16
I8
sg17
I15
sbs(I1
I8
tp120
g1
(g10
g3
NtRp121
(dp122
g13
F4.2630083792451448
sg14
I1
sg15
I01
sg16
I8
sg17
I13
sbs(I1
I7
tp123
g1
(g10
g3
NtRp124
(dp125
g13
F2.2066977278714317
sg14
I1
sg15
I01
sg16
I7
sg17
I9
sbs(I11
I6
tp126
g1
(g10
g3
NtRp127
(dp128
g13
F-5.1137003901701013
sg14
I11
sg15
I01
sg16
I6
sg17
I32
sbssS'_input_nodes'
p129
I4
sS'_output_nodes'
p130
I5
sS'_node_gene_type'
p131
cneat.genome
NodeGene
p132
sS'_FFChromosome__node_order'
p133
(lp134
I11
aI10
aI12
aI13
asS'_conn_gene_type'
p135
g10
sS'fitness'
p136
F0.39215686274509803
sS'parent2_id'
p137
I1553
sS'_id'
p138
I1632
sS'parent1_id'
p139
I1553
sS'_node_genes'
p140
(lp141
g1
(g132
g3
NtRp142
(dp143
S'_bias'
p144
I0
sS'_type'
p145
S'INPUT'
p146
sg138
I1
sS'_response'
p147
F4.9242730000000003
sS'_activation_type'
p148
Nsbag1
(g132
g3
NtRp149
(dp150
g144
I0
sg145
g146
sg138
I2
sg147
F4.9242730000000003
sg148
Nsbag1
(g132
g3
NtRp151
(dp152
g144
I0
sg145
g146
sg138
I3
sg147
F4.9242730000000003
sg148
Nsbag1
(g132
g3
NtRp153
(dp154
g144
I0
sg145
g146
sg138
I4
sg147
F4.9242730000000003
sg148
Nsbag1
(g132
g3
NtRp155
(dp156
g144
F-1.2806896934160403
sg145
S'OUTPUT'
p157
sg138
I5
sg147
F4.2238519689468266
sg148
S'tanh'
p158
sbag1
(g132
g3
NtRp159
(dp160
g144
F-0.55120878421190411
sg145
g157
sg138
I6
sg147
F4.5088725494875108
sg148
g158
sbag1
(g132
g3
NtRp161
(dp162
g144
F0.7711687057717076
sg145
g157
sg138
I7
sg147
F4.9489489965659663
sg148
g158
sbag1
(g132
g3
NtRp163
(dp164
g144
F0.22285868674386061
sg145
g157
sg138
I8
sg147
F6.1273413662163243
sg148
g158
sbag1
(g132
g3
NtRp165
(dp166
g144
F0.14067200751030354
sg145
g157
sg138
I9
sg147
F5.1787126917086992
sg148
g158
sbag1
(g132
g3
NtRp167
(dp168
g144
F0.074582833564556458
sg145
S'HIDDEN'
p169
sg138
I10
sg147
F4.9242730000000003
sg148
g158
sbag1
(g132
g3
NtRp170
(dp171
g144
F0.49562736691902254
sg145
g169
sg138
I11
sg147
F4.9242730000000003
sg148
g158
sbag1
(g132
g3
NtRp172
(dp173
g144
I0
sg145
g169
sg138
I12
sg147
F4.9242730000000003
sg148
g158
sbag1
(g132
g3
NtRp174
(dp175
g144
I0
sg145
g169
sg138
I13
sg147
F4.9242730000000003
sg148
g158
sbasb.