ccopy_reg
_reconstructor
p1
(cneat.chromosome
FFChromosome
p2
c__builtin__
object
p3
NtRp4
(dp5
S'species_id'
p6
I5
sS'_connection_genes'
p7
(dp8
(I4
I7
tp9
g1
(cneat.genome
ConnectionGene
p10
g3
NtRp11
(dp12
S'_ConnectionGene__weight'
p13
F3.5749488517691836
sS'_ConnectionGene__in'
p14
I4
sS'_ConnectionGene__enabled'
p15
I01
sS'_ConnectionGene__out'
p16
I7
sS'_ConnectionGene__innov_number'
p17
I12
sbs(I4
I8
tp18
g1
(g10
g3
NtRp19
(dp20
g13
F-5.4813335573842945
sg14
I4
sg15
I01
sg16
I8
sg17
I16
sbs(I2
I8
tp21
g1
(g10
g3
NtRp22
(dp23
g13
F-1.1836981902502028
sg14
I2
sg15
I01
sg16
I8
sg17
I14
sbs(I10
I6
tp24
g1
(g10
g3
NtRp25
(dp26
g13
F-2.1685921981811154
sg14
I10
sg15
I01
sg16
I6
sg17
I22
sbs(I3
I11
tp27
g1
(g10
g3
NtRp28
(dp29
g13
F5.5943229475240503
sg14
I3
sg15
I01
sg16
I11
sg17
I30
sbs(I1
I6
tp30
g1
(g10
g3
NtRp31
(dp32
g13
F1.2783142909192622
sg14
I1
sg15
I01
sg16
I6
sg17
I5
sbs(I3
I7
tp33
g1
(g10
g3
NtRp34
(dp35
g13
F-2.6068540530324475
sg14
I3
sg15
I01
sg16
I7
sg17
I11
sbs(I2
I5
tp36
g1
(g10
g3
NtRp37
(dp38
g13
F-0.66559185163599377
sg14
I2
sg15
I01
sg16
I5
sg17
I2
sbs(I1
I11
tp39
g1
(g10
g3
NtRp40
(dp41
g13
F-4.9332232944067265
sg14
I1
sg15
I01
sg16
I11
sg17
I39
sbs(I10
I8
tp42
g1
(g10
g3
NtRp43
(dp44
g13
F-3.7769981167061437
sg14
I10
sg15
I01
sg16
I8
sg17
I25
sbs(I4
I9
tp45
g1
(g10
g3
NtRp46
(dp47
g13
F-2.6928149565693369
sg14
I4
sg15
I01
sg16
I9
sg17
I20
sbs(I2
I9
tp48
g1
(g10
g3
NtRp49
(dp50
g13
F4.7394983044416126
sg14
I2
sg15
I01
sg16
I9
sg17
I18
sbs(I10
I7
tp51
g1
(g10
g3
NtRp52
(dp53
g13
F-7.7839025063635683
sg14
I10
sg15
I01
sg16
I7
sg17
I27
sbs(I3
I10
tp54
g1
(g10
g3
NtRp55
(dp56
g13
F-3.8745349893611989
sg14
I3
sg15
I01
sg16
I10
sg17
I29
sbs(I1
I5
tp57
g1
(g10
g3
NtRp58
(dp59
g13
F-2.2372731547180571
sg14
I1
sg15
I01
sg16
I5
sg17
I1
sbs(I3
I6
tp60
g1
(g10
g3
NtRp61
(dp62
g13
F3.0706133287910746
sg14
I3
sg15
I00
sg16
I6
sg17
I7
sbs(I1
I10
tp63
g1
(g10
g3
NtRp64
(dp65
g13
F7.1757428558187613
sg14
I1
sg15
I01
sg16
I10
sg17
I21
sbs(I10
I9
tp66
g1
(g10
g3
NtRp67
(dp68
g13
F-7.2416515405567328
sg14
I10
sg15
I01
sg16
I9
sg17
I24
sbs(I4
I10
tp69
g1
(g10
g3
NtRp70
(dp71
g13
F1.6294744134171339
sg14
I4
sg15
I01
sg16
I10
sg17
I26
sbs(I2
I6
tp72
g1
(g10
g3
NtRp73
(dp74
g13
F0.6647933653368685
sg14
I2
sg15
I01
sg16
I6
sg17
I6
sbs(I4
I5
tp75
g1
(g10
g3
NtRp76
(dp77
g13
F-0.50920617711295391
sg14
I4
sg15
I01
sg16
I5
sg17
I4
sbs(I3
I9
tp78
g1
(g10
g3
NtRp79
(dp80
g13
F-5.8881805947673307
sg14
I3
sg15
I01
sg16
I9
sg17
I19
sbs(I1
I9
tp81
g1
(g10
g3
NtRp82
(dp83
g13
F1.475760169672933
sg14
I1
sg15
I00
sg16
I9
sg17
I17
sbs(I3
I5
tp84
g1
(g10
g3
NtRp85
(dp86
g13
F-0.49562943962823236
sg14
I3
sg15
I01
sg16
I5
sg17
I3
sbs(I2
I7
tp87
g1
(g10
g3
NtRp88
(dp89
g13
F0.19343564894021914
sg14
I2
sg15
I01
sg16
I7
sg17
I10
sbs(I4
I6
tp90
g1
(g10
g3
NtRp91
(dp92
g13
F5.5756409621754024
sg14
I4
sg15
I01
sg16
I6
sg17
I8
sbs(I3
I8
tp93
g1
(g10
g3
NtRp94
(dp95
g13
F1.1019297132906409
sg14
I3
sg15
I01
sg16
I8
sg17
I15
sbs(I1
I8
tp96
g1
(g10
g3
NtRp97
(dp98
g13
F4.6865181685068995
sg14
I1
sg15
I01
sg16
I8
sg17
I13
sbs(I1
I7
tp99
g1
(g10
g3
NtRp100
(dp101
g13
F2.1806334313763949
sg14
I1
sg15
I01
sg16
I7
sg17
I9
sbs(I11
I6
tp102
g1
(g10
g3
NtRp103
(dp104
g13
F-5.4563230612303872
sg14
I11
sg15
I01
sg16
I6
sg17
I32
sbssS'_input_nodes'
p105
I4
sS'_output_nodes'
p106
I5
sS'_node_gene_type'
p107
cneat.genome
NodeGene
p108
sS'_FFChromosome__node_order'
p109
(lp110
I11
aI10
asS'_conn_gene_type'
p111
g10
sS'fitness'
p112
F0.37254901960784315
sS'parent2_id'
p113
I1175
sS'_id'
p114
I1252
sS'parent1_id'
p115
I1176
sS'_node_genes'
p116
(lp117
g1
(g108
g3
NtRp118
(dp119
S'_bias'
p120
I0
sS'_type'
p121
S'INPUT'
p122
sg114
I1
sS'_response'
p123
F4.9242730000000003
sS'_activation_type'
p124
Nsbag1
(g108
g3
NtRp125
(dp126
g120
I0
sg121
g122
sg114
I2
sg123
F4.9242730000000003
sg124
Nsbag1
(g108
g3
NtRp127
(dp128
g120
I0
sg121
g122
sg114
I3
sg123
F4.9242730000000003
sg124
Nsbag1
(g108
g3
NtRp129
(dp130
g120
I0
sg121
g122
sg114
I4
sg123
F4.9242730000000003
sg124
Nsbag1
(g108
g3
NtRp131
(dp132
g120
F-1.2806896934160403
sg121
S'OUTPUT'
p133
sg114
I5
sg123
F4.9242730000000003
sg124
S'tanh'
p134
sbag1
(g108
g3
NtRp135
(dp136
g120
F-0.55120878421190411
sg121
g133
sg114
I6
sg123
F4.5088725494875108
sg124
g134
sbag1
(g108
g3
NtRp137
(dp138
g120
F1.1124314172474468
sg121
g133
sg114
I7
sg123
F4.9489489965659663
sg124
g134
sbag1
(g108
g3
NtRp139
(dp140
g120
F0.22285868674386061
sg121
g133
sg114
I8
sg123
F6.1273413662163243
sg124
g134
sbag1
(g108
g3
NtRp141
(dp142
g120
F0.14067200751030354
sg121
g133
sg114
I9
sg123
F5.1787126917086992
sg124
g134
sbag1
(g108
g3
NtRp143
(dp144
g120
I0
sg121
S'HIDDEN'
p145
sg114
I10
sg123
F4.8016134328491749
sg124
g134
sbag1
(g108
g3
NtRp146
(dp147
g120
F0.49562736691902254
sg121
g145
sg114
I11
sg123
F4.9242730000000003
sg124
g134
sbasb.