ccopy_reg
_reconstructor
p1
(cneat.chromosome
FFChromosome
p2
c__builtin__
object
p3
NtRp4
(dp5
S'species_id'
p6
I5
sS'_connection_genes'
p7
(dp8
(I4
I7
tp9
g1
(cneat.genome
ConnectionGene
p10
g3
NtRp11
(dp12
S'_ConnectionGene__weight'
p13
F3.5749488517691836
sS'_ConnectionGene__in'
p14
I4
sS'_ConnectionGene__enabled'
p15
I01
sS'_ConnectionGene__out'
p16
I7
sS'_ConnectionGene__innov_number'
p17
I12
sbs(I4
I8
tp18
g1
(g10
g3
NtRp19
(dp20
g13
F-3.338603237173047
sg14
I4
sg15
I01
sg16
I8
sg17
I16
sbs(I2
I8
tp21
g1
(g10
g3
NtRp22
(dp23
g13
F-0.58815698275495965
sg14
I2
sg15
I01
sg16
I8
sg17
I14
sbs(I10
I6
tp24
g1
(g10
g3
NtRp25
(dp26
g13
F-1.2640319460358054
sg14
I10
sg15
I01
sg16
I6
sg17
I22
sbs(I3
I11
tp27
g1
(g10
g3
NtRp28
(dp29
g13
F5.4912414482282905
sg14
I3
sg15
I01
sg16
I11
sg17
I30
sbs(I1
I6
tp30
g1
(g10
g3
NtRp31
(dp32
g13
F-0.14581578997320518
sg14
I1
sg15
I01
sg16
I6
sg17
I5
sbs(I3
I7
tp33
g1
(g10
g3
NtRp34
(dp35
g13
F-1.5931572801556162
sg14
I3
sg15
I01
sg16
I7
sg17
I11
sbs(I2
I5
tp36
g1
(g10
g3
NtRp37
(dp38
g13
F-1.4060556934002222
sg14
I2
sg15
I01
sg16
I5
sg17
I2
sbs(I1
I11
tp39
g1
(g10
g3
NtRp40
(dp41
g13
F-7.1134983738115452
sg14
I1
sg15
I01
sg16
I11
sg17
I39
sbs(I10
I8
tp42
g1
(g10
g3
NtRp43
(dp44
g13
F-6.0527257937758936
sg14
I10
sg15
I01
sg16
I8
sg17
I25
sbs(I4
I9
tp45
g1
(g10
g3
NtRp46
(dp47
g13
F-1.7714662788647106
sg14
I4
sg15
I01
sg16
I9
sg17
I20
sbs(I2
I9
tp48
g1
(g10
g3
NtRp49
(dp50
g13
F2.595718223484841
sg14
I2
sg15
I01
sg16
I9
sg17
I18
sbs(I10
I7
tp51
g1
(g10
g3
NtRp52
(dp53
g13
F-7.6120701631618246
sg14
I10
sg15
I01
sg16
I7
sg17
I27
sbs(I1
I5
tp54
g1
(g10
g3
NtRp55
(dp56
g13
F-5.7353432823178609
sg14
I1
sg15
I01
sg16
I5
sg17
I1
sbs(I3
I6
tp57
g1
(g10
g3
NtRp58
(dp59
g13
F0.65081674990052862
sg14
I3
sg15
I00
sg16
I6
sg17
I7
sbs(I1
I10
tp60
g1
(g10
g3
NtRp61
(dp62
g13
F5.8682240893149835
sg14
I1
sg15
I01
sg16
I10
sg17
I21
sbs(I10
I9
tp63
g1
(g10
g3
NtRp64
(dp65
g13
F-7.2416515405567328
sg14
I10
sg15
I01
sg16
I9
sg17
I24
sbs(I4
I10
tp66
g1
(g10
g3
NtRp67
(dp68
g13
F1.6294744134171339
sg14
I4
sg15
I01
sg16
I10
sg17
I26
sbs(I2
I6
tp69
g1
(g10
g3
NtRp70
(dp71
g13
F0.27608895148441293
sg14
I2
sg15
I01
sg16
I6
sg17
I6
sbs(I4
I5
tp72
g1
(g10
g3
NtRp73
(dp74
g13
F-0.12553723971124975
sg14
I4
sg15
I01
sg16
I5
sg17
I4
sbs(I3
I9
tp75
g1
(g10
g3
NtRp76
(dp77
g13
F-5.5797616208631373
sg14
I3
sg15
I01
sg16
I9
sg17
I19
sbs(I1
I9
tp78
g1
(g10
g3
NtRp79
(dp80
g13
F2.7195049093299408
sg14
I1
sg15
I00
sg16
I9
sg17
I17
sbs(I3
I5
tp81
g1
(g10
g3
NtRp82
(dp83
g13
F-0.49562943962823236
sg14
I3
sg15
I01
sg16
I5
sg17
I3
sbs(I2
I7
tp84
g1
(g10
g3
NtRp85
(dp86
g13
F0.46783724031904472
sg14
I2
sg15
I01
sg16
I7
sg17
I10
sbs(I4
I6
tp87
g1
(g10
g3
NtRp88
(dp89
g13
F5.2623670705328163
sg14
I4
sg15
I01
sg16
I6
sg17
I8
sbs(I3
I8
tp90
g1
(g10
g3
NtRp91
(dp92
g13
F2.330440009636797
sg14
I3
sg15
I01
sg16
I8
sg17
I15
sbs(I1
I8
tp93
g1
(g10
g3
NtRp94
(dp95
g13
F4.2630083792451448
sg14
I1
sg15
I01
sg16
I8
sg17
I13
sbs(I1
I7
tp96
g1
(g10
g3
NtRp97
(dp98
g13
F2.2066977278714317
sg14
I1
sg15
I01
sg16
I7
sg17
I9
sbs(I11
I6
tp99
g1
(g10
g3
NtRp100
(dp101
g13
F-5.1137003901701013
sg14
I11
sg15
I01
sg16
I6
sg17
I32
sbssS'_input_nodes'
p102
I4
sS'_output_nodes'
p103
I5
sS'_node_gene_type'
p104
cneat.genome
NodeGene
p105
sS'_FFChromosome__node_order'
p106
(lp107
I11
aI10
asS'_conn_gene_type'
p108
g10
sS'fitness'
p109
F0.37254901960784315
sS'parent2_id'
p110
I1013
sS'_id'
p111
I1090
sS'parent1_id'
p112
I1013
sS'_node_genes'
p113
(lp114
g1
(g105
g3
NtRp115
(dp116
S'_bias'
p117
I0
sS'_type'
p118
S'INPUT'
p119
sg111
I1
sS'_response'
p120
F4.9242730000000003
sS'_activation_type'
p121
Nsbag1
(g105
g3
NtRp122
(dp123
g117
I0
sg118
g119
sg111
I2
sg120
F4.9242730000000003
sg121
Nsbag1
(g105
g3
NtRp124
(dp125
g117
I0
sg118
g119
sg111
I3
sg120
F4.9242730000000003
sg121
Nsbag1
(g105
g3
NtRp126
(dp127
g117
I0
sg118
g119
sg111
I4
sg120
F4.9242730000000003
sg121
Nsbag1
(g105
g3
NtRp128
(dp129
g117
F-1.2806896934160403
sg118
S'OUTPUT'
p130
sg111
I5
sg120
F4.9242730000000003
sg121
S'tanh'
p131
sbag1
(g105
g3
NtRp132
(dp133
g117
F-0.55120878421190411
sg118
g130
sg111
I6
sg120
F4.5088725494875108
sg121
g131
sbag1
(g105
g3
NtRp134
(dp135
g117
F0.7711687057717076
sg118
g130
sg111
I7
sg120
F4.9489489965659663
sg121
g131
sbag1
(g105
g3
NtRp136
(dp137
g117
F0.22285868674386061
sg118
g130
sg111
I8
sg120
F6.1273413662163243
sg121
g131
sbag1
(g105
g3
NtRp138
(dp139
g117
F0.14067200751030354
sg118
g130
sg111
I9
sg120
F5.1787126917086992
sg121
g131
sbag1
(g105
g3
NtRp140
(dp141
g117
I0
sg118
S'HIDDEN'
p142
sg111
I10
sg120
F4.9242730000000003
sg121
g131
sbag1
(g105
g3
NtRp143
(dp144
g117
F0.49562736691902254
sg118
g142
sg111
I11
sg120
F4.9242730000000003
sg121
g131
sbasb.