ccopy_reg
_reconstructor
p1
(cneat.chromosome
FFChromosome
p2
c__builtin__
object
p3
NtRp4
(dp5
S'species_id'
p6
I12
sS'_connection_genes'
p7
(dp8
(I4
I7
tp9
g1
(cneat.genome
ConnectionGene
p10
g3
NtRp11
(dp12
S'_ConnectionGene__weight'
p13
F3.7000103463659553
sS'_ConnectionGene__in'
p14
I4
sS'_ConnectionGene__enabled'
p15
I01
sS'_ConnectionGene__out'
p16
I7
sS'_ConnectionGene__innov_number'
p17
I12
sbs(I4
I8
tp18
g1
(g10
g3
NtRp19
(dp20
g13
F0.099366550153076272
sg14
I4
sg15
I01
sg16
I8
sg17
I16
sbs(I2
I8
tp21
g1
(g10
g3
NtRp22
(dp23
g13
F-0.144050640969555
sg14
I2
sg15
I01
sg16
I8
sg17
I14
sbs(I10
I6
tp24
g1
(g10
g3
NtRp25
(dp26
g13
F-3.0972750042572228
sg14
I10
sg15
I01
sg16
I6
sg17
I22
sbs(I3
I11
tp27
g1
(g10
g3
NtRp28
(dp29
g13
F-0.38512038630702516
sg14
I3
sg15
I01
sg16
I11
sg17
I30
sbs(I4
I12
tp30
g1
(g10
g3
NtRp31
(dp32
g13
F6.4155397307738653
sg14
I4
sg15
I01
sg16
I12
sg17
I40
sbs(I1
I6
tp33
g1
(g10
g3
NtRp34
(dp35
g13
F-0.78537185640303075
sg14
I1
sg15
I01
sg16
I6
sg17
I5
sbs(I3
I7
tp36
g1
(g10
g3
NtRp37
(dp38
g13
F4.2071578817830568
sg14
I3
sg15
I01
sg16
I7
sg17
I11
sbs(I2
I5
tp39
g1
(g10
g3
NtRp40
(dp41
g13
F-1.0888697312458246
sg14
I2
sg15
I01
sg16
I5
sg17
I2
sbs(I1
I11
tp42
g1
(g10
g3
NtRp43
(dp44
g13
F2.2589689509143813
sg14
I1
sg15
I01
sg16
I11
sg17
I39
sbs(I12
I9
tp45
g1
(g10
g3
NtRp46
(dp47
g13
F-0.38554877206831573
sg14
I12
sg15
I01
sg16
I9
sg17
I45
sbs(I4
I9
tp48
g1
(g10
g3
NtRp49
(dp50
g13
F3.0747151326282447
sg14
I4
sg15
I00
sg16
I9
sg17
I20
sbs(I2
I9
tp51
g1
(g10
g3
NtRp52
(dp53
g13
F1.0767619447650436
sg14
I2
sg15
I01
sg16
I9
sg17
I18
sbs(I12
I6
tp54
g1
(g10
g3
NtRp55
(dp56
g13
F2.2809106307067033
sg14
I12
sg15
I01
sg16
I6
sg17
I53
sbs(I1
I5
tp57
g1
(g10
g3
NtRp58
(dp59
g13
F-3.7061950473542429
sg14
I1
sg15
I01
sg16
I5
sg17
I1
sbs(I3
I6
tp60
g1
(g10
g3
NtRp61
(dp62
g13
F0.21833693108912111
sg14
I3
sg15
I00
sg16
I6
sg17
I7
sbs(I1
I10
tp63
g1
(g10
g3
NtRp64
(dp65
g13
F2.152430168129237
sg14
I1
sg15
I01
sg16
I10
sg17
I21
sbs(I10
I9
tp66
g1
(g10
g3
NtRp67
(dp68
g13
F-2.3420708374339494
sg14
I10
sg15
I01
sg16
I9
sg17
I24
sbs(I2
I6
tp69
g1
(g10
g3
NtRp70
(dp71
g13
F1.3760649518914883
sg14
I2
sg15
I01
sg16
I6
sg17
I6
sbs(I4
I5
tp72
g1
(g10
g3
NtRp73
(dp74
g13
F-0.89745333115106574
sg14
I4
sg15
I01
sg16
I5
sg17
I4
sbs(I3
I9
tp75
g1
(g10
g3
NtRp76
(dp77
g13
F-5.1444590064083995
sg14
I3
sg15
I01
sg16
I9
sg17
I19
sbs(I1
I9
tp78
g1
(g10
g3
NtRp79
(dp80
g13
F-1.4969306064274375
sg14
I1
sg15
I01
sg16
I9
sg17
I17
sbs(I3
I5
tp81
g1
(g10
g3
NtRp82
(dp83
g13
F1.8223656757338922
sg14
I3
sg15
I01
sg16
I5
sg17
I3
sbs(I2
I7
tp84
g1
(g10
g3
NtRp85
(dp86
g13
F-3.6074489602617859
sg14
I2
sg15
I01
sg16
I7
sg17
I10
sbs(I4
I6
tp87
g1
(g10
g3
NtRp88
(dp89
g13
F0.52737936130563345
sg14
I4
sg15
I01
sg16
I6
sg17
I8
sbs(I3
I8
tp90
g1
(g10
g3
NtRp91
(dp92
g13
F0.87911646238730135
sg14
I3
sg15
I01
sg16
I8
sg17
I15
sbs(I1
I8
tp93
g1
(g10
g3
NtRp94
(dp95
g13
F0.021192449524007284
sg14
I1
sg15
I01
sg16
I8
sg17
I13
sbs(I1
I7
tp96
g1
(g10
g3
NtRp97
(dp98
g13
F0.52547545067518864
sg14
I1
sg15
I01
sg16
I7
sg17
I9
sbs(I11
I6
tp99
g1
(g10
g3
NtRp100
(dp101
g13
F3.9364380236709535
sg14
I11
sg15
I01
sg16
I6
sg17
I32
sbssS'_input_nodes'
p102
I4
sS'_output_nodes'
p103
I5
sS'_node_gene_type'
p104
cneat.genome
NodeGene
p105
sS'_FFChromosome__node_order'
p106
(lp107
I11
aI12
aI10
asS'_conn_gene_type'
p108
g10
sS'fitness'
p109
F0.33333333333333331
sS'parent2_id'
p110
I792
sS'_id'
p111
I885
sS'parent1_id'
p112
I792
sS'_node_genes'
p113
(lp114
g1
(g105
g3
NtRp115
(dp116
S'_bias'
p117
I0
sS'_type'
p118
S'INPUT'
p119
sg111
I1
sS'_response'
p120
F4.9242730000000003
sS'_activation_type'
p121
Nsbag1
(g105
g3
NtRp122
(dp123
g117
I0
sg118
g119
sg111
I2
sg120
F4.9242730000000003
sg121
Nsbag1
(g105
g3
NtRp124
(dp125
g117
I0
sg118
g119
sg111
I3
sg120
F4.9242730000000003
sg121
Nsbag1
(g105
g3
NtRp126
(dp127
g117
I0
sg118
g119
sg111
I4
sg120
F4.9242730000000003
sg121
Nsbag1
(g105
g3
NtRp128
(dp129
g117
F-1.2806896934160403
sg118
S'OUTPUT'
p130
sg111
I5
sg120
F4.2920811258290756
sg121
S'tanh'
p131
sbag1
(g105
g3
NtRp132
(dp133
g117
I0
sg118
g130
sg111
I6
sg120
F4.9242730000000003
sg121
g131
sbag1
(g105
g3
NtRp134
(dp135
g117
F0.7711687057717076
sg118
g130
sg111
I7
sg120
F4.9242730000000003
sg121
g131
sbag1
(g105
g3
NtRp136
(dp137
g117
I0
sg118
g130
sg111
I8
sg120
F4.9242730000000003
sg121
g131
sbag1
(g105
g3
NtRp138
(dp139
g117
F0.48204368654511054
sg118
g130
sg111
I9
sg120
F4.9242730000000003
sg121
g131
sbag1
(g105
g3
NtRp140
(dp141
g117
F0.98922707133859011
sg118
S'HIDDEN'
p142
sg111
I10
sg120
F4.9242730000000003
sg121
g131
sbag1
(g105
g3
NtRp143
(dp144
g117
I0
sg118
g142
sg111
I11
sg120
F4.2560727348554677
sg121
g131
sbag1
(g105
g3
NtRp145
(dp146
g117
I0
sg118
g142
sg111
I12
sg120
F4.9242730000000003
sg121
g131
sbasb.