ccopy_reg
_reconstructor
p1
(cneat.chromosome
FFChromosome
p2
c__builtin__
object
p3
NtRp4
(dp5
S'species_id'
p6
I34
sS'_connection_genes'
p7
(dp8
(I4
I7
tp9
g1
(cneat.genome
ConnectionGene
p10
g3
NtRp11
(dp12
S'_ConnectionGene__weight'
p13
F2.7251014794375727
sS'_ConnectionGene__in'
p14
I4
sS'_ConnectionGene__enabled'
p15
I01
sS'_ConnectionGene__out'
p16
I7
sS'_ConnectionGene__innov_number'
p17
I12
sbs(I4
I8
tp18
g1
(g10
g3
NtRp19
(dp20
g13
F-3.338603237173047
sg14
I4
sg15
I01
sg16
I8
sg17
I16
sbs(I2
I8
tp21
g1
(g10
g3
NtRp22
(dp23
g13
F-0.58815698275495965
sg14
I2
sg15
I01
sg16
I8
sg17
I14
sbs(I10
I6
tp24
g1
(g10
g3
NtRp25
(dp26
g13
F-5.4298651696524569
sg14
I10
sg15
I01
sg16
I6
sg17
I22
sbs(I3
I11
tp27
g1
(g10
g3
NtRp28
(dp29
g13
F4.9830233589713577
sg14
I3
sg15
I01
sg16
I11
sg17
I30
sbs(I4
I12
tp30
g1
(g10
g3
NtRp31
(dp32
g13
F-0.039341059338864781
sg14
I4
sg15
I01
sg16
I12
sg17
I40
sbs(I1
I6
tp33
g1
(g10
g3
NtRp34
(dp35
g13
F-0.12402827490103595
sg14
I1
sg15
I01
sg16
I6
sg17
I5
sbs(I3
I7
tp36
g1
(g10
g3
NtRp37
(dp38
g13
F-1.5325941309259354
sg14
I3
sg15
I01
sg16
I7
sg17
I11
sbs(I2
I5
tp39
g1
(g10
g3
NtRp40
(dp41
g13
F-4.3745344485238515
sg14
I2
sg15
I01
sg16
I5
sg17
I2
sbs(I1
I11
tp42
g1
(g10
g3
NtRp43
(dp44
g13
F-5.7852466367427704
sg14
I1
sg15
I01
sg16
I11
sg17
I39
sbs(I10
I8
tp45
g1
(g10
g3
NtRp46
(dp47
g13
F-7.7702509506977391
sg14
I10
sg15
I01
sg16
I8
sg17
I25
sbs(I4
I9
tp48
g1
(g10
g3
NtRp49
(dp50
g13
F-1.5364617978557358
sg14
I4
sg15
I01
sg16
I9
sg17
I20
sbs(I2
I9
tp51
g1
(g10
g3
NtRp52
(dp53
g13
F2.595718223484841
sg14
I2
sg15
I01
sg16
I9
sg17
I18
sbs(I10
I7
tp54
g1
(g10
g3
NtRp55
(dp56
g13
F-8.8576449275293143
sg14
I10
sg15
I01
sg16
I7
sg17
I27
sbs(I1
I5
tp57
g1
(g10
g3
NtRp58
(dp59
g13
F-4.8858106939313899
sg14
I1
sg15
I01
sg16
I5
sg17
I1
sbs(I3
I6
tp60
g1
(g10
g3
NtRp61
(dp62
g13
F2.0415802910363734
sg14
I3
sg15
I00
sg16
I6
sg17
I7
sbs(I1
I10
tp63
g1
(g10
g3
NtRp64
(dp65
g13
F6.557011433888535
sg14
I1
sg15
I01
sg16
I10
sg17
I21
sbs(I10
I9
tp66
g1
(g10
g3
NtRp67
(dp68
g13
F-7.1475094707589006
sg14
I10
sg15
I01
sg16
I9
sg17
I24
sbs(I4
I10
tp69
g1
(g10
g3
NtRp70
(dp71
g13
F-0.24495050730096413
sg14
I4
sg15
I01
sg16
I10
sg17
I26
sbs(I2
I6
tp72
g1
(g10
g3
NtRp73
(dp74
g13
F0.79161727002316962
sg14
I2
sg15
I01
sg16
I6
sg17
I6
sbs(I4
I5
tp75
g1
(g10
g3
NtRp76
(dp77
g13
F1.6297249066665651
sg14
I4
sg15
I01
sg16
I5
sg17
I4
sbs(I3
I9
tp78
g1
(g10
g3
NtRp79
(dp80
g13
F-7.2728088160266937
sg14
I3
sg15
I01
sg16
I9
sg17
I19
sbs(I1
I9
tp81
g1
(g10
g3
NtRp82
(dp83
g13
F5.3409430749730795
sg14
I1
sg15
I00
sg16
I9
sg17
I17
sbs(I12
I11
tp84
g1
(g10
g3
NtRp85
(dp86
g13
F0.42697328376090193
sg14
I12
sg15
I01
sg16
I11
sg17
I38
sbs(I4
I11
tp87
g1
(g10
g3
NtRp88
(dp89
g13
F-0.96504174447212288
sg14
I4
sg15
I00
sg16
I11
sg17
I43
sbs(I3
I5
tp90
g1
(g10
g3
NtRp91
(dp92
g13
F-1.1532272618316131
sg14
I3
sg15
I01
sg16
I5
sg17
I3
sbs(I2
I7
tp93
g1
(g10
g3
NtRp94
(dp95
g13
F0.53052600568929853
sg14
I2
sg15
I01
sg16
I7
sg17
I10
sbs(I10
I5
tp96
g1
(g10
g3
NtRp97
(dp98
g13
F-0.53355398092224227
sg14
I10
sg15
I01
sg16
I5
sg17
I28
sbs(I4
I6
tp99
g1
(g10
g3
NtRp100
(dp101
g13
F4.5016500162527793
sg14
I4
sg15
I01
sg16
I6
sg17
I8
sbs(I3
I8
tp102
g1
(g10
g3
NtRp103
(dp104
g13
F-0.37874804452093924
sg14
I3
sg15
I01
sg16
I8
sg17
I15
sbs(I1
I8
tp105
g1
(g10
g3
NtRp106
(dp107
g13
F4.9929094794184472
sg14
I1
sg15
I01
sg16
I8
sg17
I13
sbs(I1
I7
tp108
g1
(g10
g3
NtRp109
(dp110
g13
F1.6229628163490413
sg14
I1
sg15
I01
sg16
I7
sg17
I9
sbs(I11
I6
tp111
g1
(g10
g3
NtRp112
(dp113
g13
F-6.3793594831006573
sg14
I11
sg15
I01
sg16
I6
sg17
I32
sbssS'_input_nodes'
p114
I4
sS'_output_nodes'
p115
I5
sS'_node_gene_type'
p116
cneat.genome
NodeGene
p117
sS'_FFChromosome__node_order'
p118
(lp119
I12
aI11
aI10
asS'_conn_gene_type'
p120
g10
sS'fitness'
p121
F0.39215686274509803
sS'parent2_id'
p122
I1437
sS'_id'
p123
I1528
sS'parent1_id'
p124
I1437
sS'_node_genes'
p125
(lp126
g1
(g117
g3
NtRp127
(dp128
S'_bias'
p129
I0
sS'_type'
p130
S'INPUT'
p131
sg123
I1
sS'_response'
p132
F4.9242730000000003
sS'_activation_type'
p133
Nsbag1
(g117
g3
NtRp134
(dp135
g129
I0
sg130
g131
sg123
I2
sg132
F4.9242730000000003
sg133
Nsbag1
(g117
g3
NtRp136
(dp137
g129
I0
sg130
g131
sg123
I3
sg132
F4.9242730000000003
sg133
Nsbag1
(g117
g3
NtRp138
(dp139
g129
I0
sg130
g131
sg123
I4
sg132
F4.9242730000000003
sg133
Nsbag1
(g117
g3
NtRp140
(dp141
g129
F-1.0206362901323052
sg130
S'OUTPUT'
p142
sg123
I5
sg132
F4.9242730000000003
sg133
S'tanh'
p143
sbag1
(g117
g3
NtRp144
(dp145
g129
F-0.55120878421190411
sg130
g142
sg123
I6
sg132
F4.5088725494875108
sg133
g143
sbag1
(g117
g3
NtRp146
(dp147
g129
F0.7711687057717076
sg130
g142
sg123
I7
sg132
F4.9489489965659663
sg133
g143
sbag1
(g117
g3
NtRp148
(dp149
g129
F0.22285868674386061
sg130
g142
sg123
I8
sg132
F6.1273413662163243
sg133
g143
sbag1
(g117
g3
NtRp150
(dp151
g129
F0.14067200751030354
sg130
g142
sg123
I9
sg132
F5.1787126917086992
sg133
g143
sbag1
(g117
g3
NtRp152
(dp153
g129
I0
sg130
S'HIDDEN'
p154
sg123
I10
sg132
F4.9242730000000003
sg133
g143
sbag1
(g117
g3
NtRp155
(dp156
g129
F0.49562736691902254
sg130
g154
sg123
I11
sg132
F5.1866840725598786
sg133
g143
sbag1
(g117
g3
NtRp157
(dp158
g129
I0
sg130
g154
sg123
I12
sg132
F5.053042198334639
sg133
g143
sbasb.