ccopy_reg
_reconstructor
p1
(cneat.chromosome
FFChromosome
p2
c__builtin__
object
p3
NtRp4
(dp5
S'species_id'
p6
I15
sS'_connection_genes'
p7
(dp8
(I4
I7
tp9
g1
(cneat.genome
ConnectionGene
p10
g3
NtRp11
(dp12
S'_ConnectionGene__weight'
p13
F1.3732013505027036
sS'_ConnectionGene__in'
p14
I4
sS'_ConnectionGene__enabled'
p15
I01
sS'_ConnectionGene__out'
p16
I7
sS'_ConnectionGene__innov_number'
p17
I12
sbs(I4
I8
tp18
g1
(g10
g3
NtRp19
(dp20
g13
F-1.1313104247610264
sg14
I4
sg15
I01
sg16
I8
sg17
I16
sbs(I16
I9
tp21
g1
(g10
g3
NtRp22
(dp23
g13
F-0.3397199259062591
sg14
I16
sg15
I01
sg16
I9
sg17
I87
sbs(I2
I8
tp24
g1
(g10
g3
NtRp25
(dp26
g13
F0.90668468587041562
sg14
I2
sg15
I00
sg16
I8
sg17
I14
sbs(I3
I11
tp27
g1
(g10
g3
NtRp28
(dp29
g13
F2.5783841483978227
sg14
I3
sg15
I01
sg16
I11
sg17
I30
sbs(I10
I15
tp30
g1
(g10
g3
NtRp31
(dp32
g13
F1
sg14
I10
sg15
I01
sg16
I15
sg17
I73
sbs(I14
I10
tp33
g1
(g10
g3
NtRp34
(dp35
g13
F1.2333658071723721
sg14
I14
sg15
I01
sg16
I10
sg17
I61
sbs(I1
I6
tp36
g1
(g10
g3
NtRp37
(dp38
g13
F1.6813889314780337
sg14
I1
sg15
I01
sg16
I6
sg17
I5
sbs(I2
I12
tp39
g1
(g10
g3
NtRp40
(dp41
g13
F-1.8879383076139393
sg14
I2
sg15
I01
sg16
I12
sg17
I39
sbs(I13
I8
tp42
g1
(g10
g3
NtRp43
(dp44
g13
F0.33809158373822612
sg14
I13
sg15
I01
sg16
I8
sg17
I50
sbs(I3
I7
tp45
g1
(g10
g3
NtRp46
(dp47
g13
F1.3114678078855144
sg14
I3
sg15
I01
sg16
I7
sg17
I11
sbs(I2
I5
tp48
g1
(g10
g3
NtRp49
(dp50
g13
F-5.0635170604204571
sg14
I2
sg15
I01
sg16
I5
sg17
I2
sbs(I12
I9
tp51
g1
(g10
g3
NtRp52
(dp53
g13
F-2.5005658954859356
sg14
I12
sg15
I01
sg16
I9
sg17
I40
sbs(I3
I14
tp54
g1
(g10
g3
NtRp55
(dp56
g13
F3.0673655025208548
sg14
I3
sg15
I01
sg16
I14
sg17
I57
sbs(I4
I9
tp57
g1
(g10
g3
NtRp58
(dp59
g13
F0.31514157933952458
sg14
I4
sg15
I01
sg16
I9
sg17
I20
sbs(I2
I9
tp60
g1
(g10
g3
NtRp61
(dp62
g13
F-0.3397199259062591
sg14
I2
sg15
I00
sg16
I9
sg17
I18
sbs(I11
I5
tp63
g1
(g10
g3
NtRp64
(dp65
g13
F1.1706628742000693
sg14
I11
sg15
I01
sg16
I5
sg17
I41
sbs(I3
I10
tp66
g1
(g10
g3
NtRp67
(dp68
g13
F-1.6123543028321095
sg14
I3
sg15
I00
sg16
I10
sg17
I21
sbs(I10
I12
tp69
g1
(g10
g3
NtRp70
(dp71
g13
F0.47726437980030528
sg14
I10
sg15
I01
sg16
I12
sg17
I60
sbs(I1
I5
tp72
g1
(g10
g3
NtRp73
(dp74
g13
F2.0348030565960253
sg14
I1
sg15
I01
sg16
I5
sg17
I1
sbs(I2
I13
tp75
g1
(g10
g3
NtRp76
(dp77
g13
F1
sg14
I2
sg15
I01
sg16
I13
sg17
I55
sbs(I3
I6
tp78
g1
(g10
g3
NtRp79
(dp80
g13
F0.94675816882967456
sg14
I3
sg15
I01
sg16
I6
sg17
I7
sbs(I10
I9
tp81
g1
(g10
g3
NtRp82
(dp83
g13
F0.89641349071514553
sg14
I10
sg15
I00
sg16
I9
sg17
I22
sbs(I2
I16
tp84
g1
(g10
g3
NtRp85
(dp86
g13
F1
sg14
I2
sg15
I01
sg16
I16
sg17
I85
sbs(I2
I6
tp87
g1
(g10
g3
NtRp88
(dp89
g13
F-1.5054042070634053
sg14
I2
sg15
I01
sg16
I6
sg17
I6
sbs(I4
I5
tp90
g1
(g10
g3
NtRp91
(dp92
g13
F4.772007278759733
sg14
I4
sg15
I01
sg16
I5
sg17
I4
sbs(I12
I7
tp93
g1
(g10
g3
NtRp94
(dp95
g13
F-1.1276664316668521
sg14
I12
sg15
I01
sg16
I7
sg17
I38
sbs(I15
I9
tp96
g1
(g10
g3
NtRp97
(dp98
g13
F0.89641349071514553
sg14
I15
sg15
I01
sg16
I9
sg17
I74
sbs(I2
I10
tp99
g1
(g10
g3
NtRp100
(dp101
g13
F-0.38306249079559862
sg14
I2
sg15
I01
sg16
I10
sg17
I26
sbs(I3
I9
tp102
g1
(g10
g3
NtRp103
(dp104
g13
F-0.062360425337700365
sg14
I3
sg15
I01
sg16
I9
sg17
I19
sbs(I1
I9
tp105
g1
(g10
g3
NtRp106
(dp107
g13
F-6.1013088701520353
sg14
I1
sg15
I01
sg16
I9
sg17
I17
sbs(I3
I5
tp108
g1
(g10
g3
NtRp109
(dp110
g13
F1.0806730588046896
sg14
I3
sg15
I01
sg16
I5
sg17
I3
sbs(I2
I7
tp111
g1
(g10
g3
NtRp112
(dp113
g13
F-2.9008697632139357
sg14
I2
sg15
I01
sg16
I7
sg17
I10
sbs(I11
I7
tp114
g1
(g10
g3
NtRp115
(dp116
g13
F-1.7955790585938887
sg14
I11
sg15
I01
sg16
I7
sg17
I31
sbs(I4
I6
tp117
g1
(g10
g3
NtRp118
(dp119
g13
F-0.25838053456109811
sg14
I4
sg15
I01
sg16
I6
sg17
I8
sbs(I2
I11
tp120
g1
(g10
g3
NtRp121
(dp122
g13
F-0.3252055860055556
sg14
I2
sg15
I01
sg16
I11
sg17
I32
sbs(I3
I8
tp123
g1
(g10
g3
NtRp124
(dp125
g13
F2.5110020145896836
sg14
I3
sg15
I01
sg16
I8
sg17
I15
sbs(I1
I8
tp126
g1
(g10
g3
NtRp127
(dp128
g13
F-1.3539958829592844
sg14
I1
sg15
I01
sg16
I8
sg17
I13
sbs(I1
I7
tp129
g1
(g10
g3
NtRp130
(dp131
g13
F1.0727842931775267
sg14
I1
sg15
I01
sg16
I7
sg17
I9
sbs(I14
I7
tp132
g1
(g10
g3
NtRp133
(dp134
g13
F-0.95072835039174264
sg14
I14
sg15
I01
sg16
I7
sg17
I79
sbs(I12
I8
tp135
g1
(g10
g3
NtRp136
(dp137
g13
F-0.031560341364886474
sg14
I12
sg15
I01
sg16
I8
sg17
I44
sbssS'_input_nodes'
p138
I4
sS'_output_nodes'
p139
I5
sS'_node_gene_type'
p140
cneat.genome
NodeGene
p141
sS'_FFChromosome__node_order'
p142
(lp143
I13
aI11
aI14
aI10
aI16
aI12
aI15
asS'_conn_gene_type'
p144
g10
sS'fitness'
p145
F0.71014492753623193
sS'parent2_id'
p146
I1712
sS'_id'
p147
I1789
sS'parent1_id'
p148
I1712
sS'_node_genes'
p149
(lp150
g1
(g141
g3
NtRp151
(dp152
S'_bias'
p153
I0
sS'_type'
p154
S'INPUT'
p155
sg147
I1
sS'_response'
p156
F4.9242730000000003
sS'_activation_type'
p157
Nsbag1
(g141
g3
NtRp158
(dp159
g153
I0
sg154
g155
sg147
I2
sg156
F4.9242730000000003
sg157
Nsbag1
(g141
g3
NtRp160
(dp161
g153
I0
sg154
g155
sg147
I3
sg156
F4.9242730000000003
sg157
Nsbag1
(g141
g3
NtRp162
(dp163
g153
I0
sg154
g155
sg147
I4
sg156
F4.9242730000000003
sg157
Nsbag1
(g141
g3
NtRp164
(dp165
g153
F0.49062731149449768
sg154
S'OUTPUT'
p166
sg147
I5
sg156
F4.9242730000000003
sg157
S'tanh'
p167
sbag1
(g141
g3
NtRp168
(dp169
g153
F-0.17308851265968075
sg154
g166
sg147
I6
sg156
F4.8128794746274224
sg157
g167
sbag1
(g141
g3
NtRp170
(dp171
g153
F-0.77092150719673125
sg154
g166
sg147
I7
sg156
F4.8130133233755732
sg157
g167
sbag1
(g141
g3
NtRp172
(dp173
g153
I0
sg154
g166
sg147
I8
sg156
F4.9242730000000003
sg157
g167
sbag1
(g141
g3
NtRp174
(dp175
g153
F-0.43724516136855146
sg154
g166
sg147
I9
sg156
F4.3305104065620297
sg157
g167
sbag1
(g141
g3
NtRp176
(dp177
g153
I0
sg154
S'HIDDEN'
p178
sg147
I10
sg156
F4.9242730000000003
sg157
g167
sbag1
(g141
g3
NtRp179
(dp180
g153
F0.50138963757037214
sg154
g178
sg147
I11
sg156
F4.9242730000000003
sg157
g167
sbag1
(g141
g3
NtRp181
(dp182
g153
I0
sg154
g178
sg147
I12
sg156
F4.9242730000000003
sg157
g167
sbag1
(g141
g3
NtRp183
(dp184
g153
I0
sg154
g178
sg147
I13
sg156
F4.9242730000000003
sg157
g167
sbag1
(g141
g3
NtRp185
(dp186
g153
I0
sg154
g178
sg147
I14
sg156
F4.9242730000000003
sg157
g167
sbag1
(g141
g3
NtRp187
(dp188
g153
I0
sg154
g178
sg147
I15
sg156
F4.9242730000000003
sg157
g167
sbag1
(g141
g3
NtRp189
(dp190
g153
I0
sg154
g178
sg147
I16
sg156
F4.9242730000000003
sg157
g167
sbasb.