ccopy_reg
_reconstructor
p1
(cneat.chromosome
FFChromosome
p2
c__builtin__
object
p3
NtRp4
(dp5
S'species_id'
p6
I15
sS'_connection_genes'
p7
(dp8
(I4
I7
tp9
g1
(cneat.genome
ConnectionGene
p10
g3
NtRp11
(dp12
S'_ConnectionGene__weight'
p13
F1.3732013505027036
sS'_ConnectionGene__in'
p14
I4
sS'_ConnectionGene__enabled'
p15
I01
sS'_ConnectionGene__out'
p16
I7
sS'_ConnectionGene__innov_number'
p17
I12
sbs(I4
I8
tp18
g1
(g10
g3
NtRp19
(dp20
g13
F-1.1313104247610264
sg14
I4
sg15
I01
sg16
I8
sg17
I16
sbs(I2
I8
tp21
g1
(g10
g3
NtRp22
(dp23
g13
F0.90668468587041562
sg14
I2
sg15
I00
sg16
I8
sg17
I14
sbs(I3
I11
tp24
g1
(g10
g3
NtRp25
(dp26
g13
F2.5783841483978227
sg14
I3
sg15
I01
sg16
I11
sg17
I30
sbs(I10
I15
tp27
g1
(g10
g3
NtRp28
(dp29
g13
F1
sg14
I10
sg15
I01
sg16
I15
sg17
I73
sbs(I14
I10
tp30
g1
(g10
g3
NtRp31
(dp32
g13
F1.2333658071723721
sg14
I14
sg15
I01
sg16
I10
sg17
I61
sbs(I1
I6
tp33
g1
(g10
g3
NtRp34
(dp35
g13
F1.6813889314780337
sg14
I1
sg15
I01
sg16
I6
sg17
I5
sbs(I2
I12
tp36
g1
(g10
g3
NtRp37
(dp38
g13
F-1.8879383076139393
sg14
I2
sg15
I01
sg16
I12
sg17
I39
sbs(I13
I8
tp39
g1
(g10
g3
NtRp40
(dp41
g13
F0.33809158373822612
sg14
I13
sg15
I01
sg16
I8
sg17
I50
sbs(I3
I7
tp42
g1
(g10
g3
NtRp43
(dp44
g13
F1.3114678078855144
sg14
I3
sg15
I01
sg16
I7
sg17
I11
sbs(I2
I5
tp45
g1
(g10
g3
NtRp46
(dp47
g13
F-5.0635170604204571
sg14
I2
sg15
I01
sg16
I5
sg17
I2
sbs(I12
I9
tp48
g1
(g10
g3
NtRp49
(dp50
g13
F-2.5005658954859356
sg14
I12
sg15
I01
sg16
I9
sg17
I40
sbs(I3
I14
tp51
g1
(g10
g3
NtRp52
(dp53
g13
F3.0673655025208548
sg14
I3
sg15
I01
sg16
I14
sg17
I57
sbs(I4
I9
tp54
g1
(g10
g3
NtRp55
(dp56
g13
F0.31514157933952458
sg14
I4
sg15
I01
sg16
I9
sg17
I20
sbs(I2
I9
tp57
g1
(g10
g3
NtRp58
(dp59
g13
F-0.3397199259062591
sg14
I2
sg15
I00
sg16
I9
sg17
I18
sbs(I3
I10
tp60
g1
(g10
g3
NtRp61
(dp62
g13
F-1.6123543028321095
sg14
I3
sg15
I00
sg16
I10
sg17
I21
sbs(I10
I12
tp63
g1
(g10
g3
NtRp64
(dp65
g13
F0.47726437980030528
sg14
I10
sg15
I01
sg16
I12
sg17
I60
sbs(I1
I5
tp66
g1
(g10
g3
NtRp67
(dp68
g13
F2.0348030565960253
sg14
I1
sg15
I01
sg16
I5
sg17
I1
sbs(I2
I13
tp69
g1
(g10
g3
NtRp70
(dp71
g13
F1
sg14
I2
sg15
I01
sg16
I13
sg17
I55
sbs(I3
I6
tp72
g1
(g10
g3
NtRp73
(dp74
g13
F0.94675816882967456
sg14
I3
sg15
I01
sg16
I6
sg17
I7
sbs(I10
I9
tp75
g1
(g10
g3
NtRp76
(dp77
g13
F0.89641349071514553
sg14
I10
sg15
I00
sg16
I9
sg17
I22
sbs(I2
I6
tp78
g1
(g10
g3
NtRp79
(dp80
g13
F-1.5054042070634053
sg14
I2
sg15
I01
sg16
I6
sg17
I6
sbs(I4
I5
tp81
g1
(g10
g3
NtRp82
(dp83
g13
F4.772007278759733
sg14
I4
sg15
I01
sg16
I5
sg17
I4
sbs(I12
I7
tp84
g1
(g10
g3
NtRp85
(dp86
g13
F-1.1276664316668521
sg14
I12
sg15
I01
sg16
I7
sg17
I38
sbs(I15
I9
tp87
g1
(g10
g3
NtRp88
(dp89
g13
F0.89641349071514553
sg14
I15
sg15
I01
sg16
I9
sg17
I74
sbs(I2
I10
tp90
g1
(g10
g3
NtRp91
(dp92
g13
F-0.38306249079559862
sg14
I2
sg15
I01
sg16
I10
sg17
I26
sbs(I3
I9
tp93
g1
(g10
g3
NtRp94
(dp95
g13
F-0.062360425337700365
sg14
I3
sg15
I01
sg16
I9
sg17
I19
sbs(I1
I9
tp96
g1
(g10
g3
NtRp97
(dp98
g13
F-6.1013088701520353
sg14
I1
sg15
I01
sg16
I9
sg17
I17
sbs(I3
I5
tp99
g1
(g10
g3
NtRp100
(dp101
g13
F1.0806730588046896
sg14
I3
sg15
I01
sg16
I5
sg17
I3
sbs(I2
I7
tp102
g1
(g10
g3
NtRp103
(dp104
g13
F-2.9008697632139357
sg14
I2
sg15
I01
sg16
I7
sg17
I10
sbs(I11
I7
tp105
g1
(g10
g3
NtRp106
(dp107
g13
F-1.7955790585938887
sg14
I11
sg15
I01
sg16
I7
sg17
I31
sbs(I4
I6
tp108
g1
(g10
g3
NtRp109
(dp110
g13
F-0.25838053456109811
sg14
I4
sg15
I01
sg16
I6
sg17
I8
sbs(I2
I11
tp111
g1
(g10
g3
NtRp112
(dp113
g13
F-0.3252055860055556
sg14
I2
sg15
I01
sg16
I11
sg17
I32
sbs(I3
I8
tp114
g1
(g10
g3
NtRp115
(dp116
g13
F2.5110020145896836
sg14
I3
sg15
I01
sg16
I8
sg17
I15
sbs(I1
I8
tp117
g1
(g10
g3
NtRp118
(dp119
g13
F-1.3539958829592844
sg14
I1
sg15
I01
sg16
I8
sg17
I13
sbs(I1
I7
tp120
g1
(g10
g3
NtRp121
(dp122
g13
F1.0727842931775267
sg14
I1
sg15
I01
sg16
I7
sg17
I9
sbssS'_input_nodes'
p123
I4
sS'_output_nodes'
p124
I5
sS'_node_gene_type'
p125
cneat.genome
NodeGene
p126
sS'_FFChromosome__node_order'
p127
(lp128
I13
aI11
aI14
aI10
aI12
aI15
asS'_conn_gene_type'
p129
g10
sS'fitness'
p130
F0.71014492753623193
sS'parent2_id'
p131
I1331
sS'_id'
p132
I1411
sS'parent1_id'
p133
I1331
sS'_node_genes'
p134
(lp135
g1
(g126
g3
NtRp136
(dp137
S'_bias'
p138
I0
sS'_type'
p139
S'INPUT'
p140
sg132
I1
sS'_response'
p141
F4.9242730000000003
sS'_activation_type'
p142
Nsbag1
(g126
g3
NtRp143
(dp144
g138
I0
sg139
g140
sg132
I2
sg141
F4.9242730000000003
sg142
Nsbag1
(g126
g3
NtRp145
(dp146
g138
I0
sg139
g140
sg132
I3
sg141
F4.9242730000000003
sg142
Nsbag1
(g126
g3
NtRp147
(dp148
g138
I0
sg139
g140
sg132
I4
sg141
F4.9242730000000003
sg142
Nsbag1
(g126
g3
NtRp149
(dp150
g138
F0.49062731149449768
sg139
S'OUTPUT'
p151
sg132
I5
sg141
F4.9242730000000003
sg142
S'tanh'
p152
sbag1
(g126
g3
NtRp153
(dp154
g138
F-0.17308851265968075
sg139
g151
sg132
I6
sg141
F4.8128794746274224
sg142
g152
sbag1
(g126
g3
NtRp155
(dp156
g138
F-0.77092150719673125
sg139
g151
sg132
I7
sg141
F4.8130133233755732
sg142
g152
sbag1
(g126
g3
NtRp157
(dp158
g138
I0
sg139
g151
sg132
I8
sg141
F4.9242730000000003
sg142
g152
sbag1
(g126
g3
NtRp159
(dp160
g138
F-0.43724516136855146
sg139
g151
sg132
I9
sg141
F4.3305104065620297
sg142
g152
sbag1
(g126
g3
NtRp161
(dp162
g138
I0
sg139
S'HIDDEN'
p163
sg132
I10
sg141
F4.9242730000000003
sg142
g152
sbag1
(g126
g3
NtRp164
(dp165
g138
F0.50138963757037214
sg139
g163
sg132
I11
sg141
F4.9242730000000003
sg142
g152
sbag1
(g126
g3
NtRp166
(dp167
g138
I0
sg139
g163
sg132
I12
sg141
F4.9242730000000003
sg142
g152
sbag1
(g126
g3
NtRp168
(dp169
g138
I0
sg139
g163
sg132
I13
sg141
F4.9242730000000003
sg142
g152
sbag1
(g126
g3
NtRp170
(dp171
g138
I0
sg139
g163
sg132
I14
sg141
F4.9242730000000003
sg142
g152
sbag1
(g126
g3
NtRp172
(dp173
g138
I0
sg139
g163
sg132
I15
sg141
F4.9242730000000003
sg142
g152
sbasb.