ccopy_reg
_reconstructor
p1
(cneat.chromosome
FFChromosome
p2
c__builtin__
object
p3
NtRp4
(dp5
S'species_id'
p6
I11
sS'_connection_genes'
p7
(dp8
(I4
I7
tp9
g1
(cneat.genome
ConnectionGene
p10
g3
NtRp11
(dp12
S'_ConnectionGene__weight'
p13
F0.32341454474016618
sS'_ConnectionGene__in'
p14
I4
sS'_ConnectionGene__enabled'
p15
I01
sS'_ConnectionGene__out'
p16
I7
sS'_ConnectionGene__innov_number'
p17
I12
sbs(I4
I8
tp18
g1
(g10
g3
NtRp19
(dp20
g13
F-8.7936566366653164
sg14
I4
sg15
I01
sg16
I8
sg17
I16
sbs(I2
I8
tp21
g1
(g10
g3
NtRp22
(dp23
g13
F1.6754399764867545
sg14
I2
sg15
I01
sg16
I8
sg17
I14
sbs(I3
I11
tp24
g1
(g10
g3
NtRp25
(dp26
g13
F-1.9631213330243342
sg14
I3
sg15
I01
sg16
I11
sg17
I30
sbs(I12
I5
tp27
g1
(g10
g3
NtRp28
(dp29
g13
F3.3097635308322619
sg14
I12
sg15
I01
sg16
I5
sg17
I47
sbs(I4
I12
tp30
g1
(g10
g3
NtRp31
(dp32
g13
F-0.36714214914769927
sg14
I4
sg15
I01
sg16
I12
sg17
I43
sbs(I1
I6
tp33
g1
(g10
g3
NtRp34
(dp35
g13
F-5.2108114638525107
sg14
I1
sg15
I01
sg16
I6
sg17
I5
sbs(I3
I7
tp36
g1
(g10
g3
NtRp37
(dp38
g13
F-0.21228986809241324
sg14
I3
sg15
I00
sg16
I7
sg17
I11
sbs(I2
I5
tp39
g1
(g10
g3
NtRp40
(dp41
g13
F-4.168606254133528
sg14
I2
sg15
I01
sg16
I5
sg17
I2
sbs(I4
I9
tp42
g1
(g10
g3
NtRp43
(dp44
g13
F1.7899357791032842
sg14
I4
sg15
I01
sg16
I9
sg17
I20
sbs(I2
I9
tp45
g1
(g10
g3
NtRp46
(dp47
g13
F-2.0741923649777885
sg14
I2
sg15
I01
sg16
I9
sg17
I18
sbs(I3
I10
tp48
g1
(g10
g3
NtRp49
(dp50
g13
F1.487431212843354
sg14
I3
sg15
I01
sg16
I10
sg17
I21
sbs(I1
I5
tp51
g1
(g10
g3
NtRp52
(dp53
g13
F-5.040142842494614
sg14
I1
sg15
I01
sg16
I5
sg17
I1
sbs(I3
I6
tp54
g1
(g10
g3
NtRp55
(dp56
g13
F0.89750011239707717
sg14
I3
sg15
I01
sg16
I6
sg17
I7
sbs(I10
I9
tp57
g1
(g10
g3
NtRp58
(dp59
g13
F1.326351408723025
sg14
I10
sg15
I01
sg16
I9
sg17
I22
sbs(I2
I6
tp60
g1
(g10
g3
NtRp61
(dp62
g13
F-3.2653278992362429
sg14
I2
sg15
I01
sg16
I6
sg17
I6
sbs(I4
I5
tp63
g1
(g10
g3
NtRp64
(dp65
g13
F2.7354095345480145
sg14
I4
sg15
I00
sg16
I5
sg17
I4
sbs(I2
I10
tp66
g1
(g10
g3
NtRp67
(dp68
g13
F0.10332052341032638
sg14
I2
sg15
I01
sg16
I10
sg17
I26
sbs(I3
I9
tp69
g1
(g10
g3
NtRp70
(dp71
g13
F-0.44600831703164395
sg14
I3
sg15
I01
sg16
I9
sg17
I19
sbs(I1
I9
tp72
g1
(g10
g3
NtRp73
(dp74
g13
F-0.029444224569654232
sg14
I1
sg15
I01
sg16
I9
sg17
I17
sbs(I3
I5
tp75
g1
(g10
g3
NtRp76
(dp77
g13
F-6.1649583900981169
sg14
I3
sg15
I01
sg16
I5
sg17
I3
sbs(I2
I7
tp78
g1
(g10
g3
NtRp79
(dp80
g13
F0.35877468362448384
sg14
I2
sg15
I01
sg16
I7
sg17
I10
sbs(I11
I7
tp81
g1
(g10
g3
NtRp82
(dp83
g13
F-2.4048754450898837
sg14
I11
sg15
I01
sg16
I7
sg17
I31
sbs(I4
I6
tp84
g1
(g10
g3
NtRp85
(dp86
g13
F1.5896525867682207
sg14
I4
sg15
I01
sg16
I6
sg17
I8
sbs(I3
I8
tp87
g1
(g10
g3
NtRp88
(dp89
g13
F-1.1019095824759599
sg14
I3
sg15
I01
sg16
I8
sg17
I15
sbs(I1
I8
tp90
g1
(g10
g3
NtRp91
(dp92
g13
F1.2052732449065355
sg14
I1
sg15
I01
sg16
I8
sg17
I13
sbs(I1
I7
tp93
g1
(g10
g3
NtRp94
(dp95
g13
F1.4246187840808533
sg14
I1
sg15
I00
sg16
I7
sg17
I9
sbs(I11
I6
tp96
g1
(g10
g3
NtRp97
(dp98
g13
F-0.90916211710831307
sg14
I11
sg15
I01
sg16
I6
sg17
I33
sbssS'_input_nodes'
p99
I4
sS'_output_nodes'
p100
I5
sS'_node_gene_type'
p101
cneat.genome
NodeGene
p102
sS'_FFChromosome__node_order'
p103
(lp104
I12
aI11
aI10
asS'_conn_gene_type'
p105
g10
sS'fitness'
p106
F0.36231884057971014
sS'parent2_id'
p107
I906
sS'_id'
p108
I993
sS'parent1_id'
p109
I906
sS'_node_genes'
p110
(lp111
g1
(g102
g3
NtRp112
(dp113
S'_bias'
p114
I0
sS'_type'
p115
S'INPUT'
p116
sg108
I1
sS'_response'
p117
F4.9242730000000003
sS'_activation_type'
p118
Nsbag1
(g102
g3
NtRp119
(dp120
g114
I0
sg115
g116
sg108
I2
sg117
F4.9242730000000003
sg118
Nsbag1
(g102
g3
NtRp121
(dp122
g114
I0
sg115
g116
sg108
I3
sg117
F4.9242730000000003
sg118
Nsbag1
(g102
g3
NtRp123
(dp124
g114
I0
sg115
g116
sg108
I4
sg117
F4.9242730000000003
sg118
Nsbag1
(g102
g3
NtRp125
(dp126
g114
F0.23229464415622983
sg115
S'OUTPUT'
p127
sg108
I5
sg117
F4.9242730000000003
sg118
S'tanh'
p128
sbag1
(g102
g3
NtRp129
(dp130
g114
F-0.17308851265968075
sg115
g127
sg108
I6
sg117
F6.2619336227470228
sg118
g128
sbag1
(g102
g3
NtRp131
(dp132
g114
I0
sg115
g127
sg108
I7
sg117
F4.9375289287852304
sg118
g128
sbag1
(g102
g3
NtRp133
(dp134
g114
F-1.1468802622938727
sg115
g127
sg108
I8
sg117
F4.9242730000000003
sg118
g128
sbag1
(g102
g3
NtRp135
(dp136
g114
F0.80721340348919157
sg115
g127
sg108
I9
sg117
F4.9242730000000003
sg118
g128
sbag1
(g102
g3
NtRp137
(dp138
g114
F0.0384745620598511
sg115
S'HIDDEN'
p139
sg108
I10
sg117
F4.9242730000000003
sg118
g128
sbag1
(g102
g3
NtRp140
(dp141
g114
F0.61461460929911915
sg115
g139
sg108
I11
sg117
F4.7704962609086214
sg118
g128
sbag1
(g102
g3
NtRp142
(dp143
g114
F-0.35315456257054456
sg115
g139
sg108
I12
sg117
F4.9242730000000003
sg118
g128
sbasb.