ccopy_reg
_reconstructor
p1
(cneat.chromosome
FFChromosome
p2
c__builtin__
object
p3
NtRp4
(dp5
S'species_id'
p6
I5
sS'_connection_genes'
p7
(dp8
(I4
I7
tp9
g1
(cneat.genome
ConnectionGene
p10
g3
NtRp11
(dp12
S'_ConnectionGene__weight'
p13
F1.5466220978957355
sS'_ConnectionGene__in'
p14
I4
sS'_ConnectionGene__enabled'
p15
I01
sS'_ConnectionGene__out'
p16
I7
sS'_ConnectionGene__innov_number'
p17
I12
sbs(I4
I8
tp18
g1
(g10
g3
NtRp19
(dp20
g13
F-3.2176607075768793
sg14
I4
sg15
I01
sg16
I8
sg17
I16
sbs(I2
I8
tp21
g1
(g10
g3
NtRp22
(dp23
g13
F0.51084249112073821
sg14
I2
sg15
I01
sg16
I8
sg17
I14
sbs(I1
I6
tp24
g1
(g10
g3
NtRp25
(dp26
g13
F0.42374296298463665
sg14
I1
sg15
I01
sg16
I6
sg17
I5
sbs(I3
I7
tp27
g1
(g10
g3
NtRp28
(dp29
g13
F-0.85271107008222091
sg14
I3
sg15
I01
sg16
I7
sg17
I11
sbs(I2
I5
tp30
g1
(g10
g3
NtRp31
(dp32
g13
F-0.06086834293339366
sg14
I2
sg15
I01
sg16
I5
sg17
I2
sbs(I4
I9
tp33
g1
(g10
g3
NtRp34
(dp35
g13
F3.3210118031301104
sg14
I4
sg15
I01
sg16
I9
sg17
I20
sbs(I2
I9
tp36
g1
(g10
g3
NtRp37
(dp38
g13
F-1.9067479827965781
sg14
I2
sg15
I00
sg16
I9
sg17
I18
sbs(I10
I7
tp39
g1
(g10
g3
NtRp40
(dp41
g13
F-3.414904296392709
sg14
I10
sg15
I01
sg16
I7
sg17
I32
sbs(I1
I5
tp42
g1
(g10
g3
NtRp43
(dp44
g13
F-0.8552821083413763
sg14
I1
sg15
I01
sg16
I5
sg17
I1
sbs(I3
I6
tp45
g1
(g10
g3
NtRp46
(dp47
g13
F-4.5423391992470377
sg14
I3
sg15
I01
sg16
I6
sg17
I7
sbs(I10
I9
tp48
g1
(g10
g3
NtRp49
(dp50
g13
F1.8985005231250627
sg14
I10
sg15
I01
sg16
I9
sg17
I26
sbs(I2
I6
tp51
g1
(g10
g3
NtRp52
(dp53
g13
F-0.2573325024161266
sg14
I2
sg15
I00
sg16
I6
sg17
I6
sbs(I4
I5
tp54
g1
(g10
g3
NtRp55
(dp56
g13
F2.2605592124628031
sg14
I4
sg15
I01
sg16
I5
sg17
I4
sbs(I2
I10
tp57
g1
(g10
g3
NtRp58
(dp59
g13
F1.9871230174935257
sg14
I2
sg15
I01
sg16
I10
sg17
I23
sbs(I3
I9
tp60
g1
(g10
g3
NtRp61
(dp62
g13
F0.63548830531489919
sg14
I3
sg15
I01
sg16
I9
sg17
I19
sbs(I1
I9
tp63
g1
(g10
g3
NtRp64
(dp65
g13
F-2.2418166592804845
sg14
I1
sg15
I01
sg16
I9
sg17
I17
sbs(I4
I11
tp66
g1
(g10
g3
NtRp67
(dp68
g13
F0.92395195661828899
sg14
I4
sg15
I01
sg16
I11
sg17
I33
sbs(I3
I5
tp69
g1
(g10
g3
NtRp70
(dp71
g13
F4.6627172168978666
sg14
I3
sg15
I01
sg16
I5
sg17
I3
sbs(I2
I7
tp72
g1
(g10
g3
NtRp73
(dp74
g13
F-0.3842011113613597
sg14
I2
sg15
I01
sg16
I7
sg17
I10
sbs(I4
I6
tp75
g1
(g10
g3
NtRp76
(dp77
g13
F2.3669572739453186
sg14
I4
sg15
I00
sg16
I6
sg17
I8
sbs(I2
I11
tp78
g1
(g10
g3
NtRp79
(dp80
g13
F0.081817481386451785
sg14
I2
sg15
I01
sg16
I11
sg17
I30
sbs(I3
I8
tp81
g1
(g10
g3
NtRp82
(dp83
g13
F2.2919518188130041
sg14
I3
sg15
I01
sg16
I8
sg17
I15
sbs(I1
I8
tp84
g1
(g10
g3
NtRp85
(dp86
g13
F-0.23929835547756073
sg14
I1
sg15
I01
sg16
I8
sg17
I13
sbs(I1
I7
tp87
g1
(g10
g3
NtRp88
(dp89
g13
F-0.62617002523398568
sg14
I1
sg15
I01
sg16
I7
sg17
I9
sbs(I11
I6
tp90
g1
(g10
g3
NtRp91
(dp92
g13
F0.40793412142323904
sg14
I11
sg15
I01
sg16
I6
sg17
I34
sbssS'_input_nodes'
p93
I4
sS'_output_nodes'
p94
I5
sS'_node_gene_type'
p95
cneat.genome
NodeGene
p96
sS'_FFChromosome__node_order'
p97
(lp98
I11
aI10
asS'_conn_gene_type'
p99
g10
sS'fitness'
p100
F0.12071636434856946
sS'parent2_id'
p101
I651
sS'_id'
p102
I742
sS'parent1_id'
p103
I651
sS'_node_genes'
p104
(lp105
g1
(g96
g3
NtRp106
(dp107
S'_bias'
p108
I0
sS'_type'
p109
S'INPUT'
p110
sg102
I1
sS'_response'
p111
F4.9242730000000003
sS'_activation_type'
p112
Nsbag1
(g96
g3
NtRp113
(dp114
g108
I0
sg109
g110
sg102
I2
sg111
F4.9242730000000003
sg112
Nsbag1
(g96
g3
NtRp115
(dp116
g108
I0
sg109
g110
sg102
I3
sg111
F4.9242730000000003
sg112
Nsbag1
(g96
g3
NtRp117
(dp118
g108
I0
sg109
g110
sg102
I4
sg111
F4.9242730000000003
sg112
Nsbag1
(g96
g3
NtRp119
(dp120
g108
I0
sg109
S'OUTPUT'
p121
sg102
I5
sg111
F5.6557209442425558
sg112
S'tanh'
p122
sbag1
(g96
g3
NtRp123
(dp124
g108
I0
sg109
g121
sg102
I6
sg111
F4.7074633366019105
sg112
g122
sbag1
(g96
g3
NtRp125
(dp126
g108
F0.36296961923342697
sg109
g121
sg102
I7
sg111
F4.9242730000000003
sg112
g122
sbag1
(g96
g3
NtRp127
(dp128
g108
I0
sg109
g121
sg102
I8
sg111
F4.9242730000000003
sg112
g122
sbag1
(g96
g3
NtRp129
(dp130
g108
I0
sg109
g121
sg102
I9
sg111
F4.861406160655954
sg112
g122
sbag1
(g96
g3
NtRp131
(dp132
g108
I0
sg109
S'HIDDEN'
p133
sg102
I10
sg111
F4.9242730000000003
sg112
g122
sbag1
(g96
g3
NtRp134
(dp135
g108
I0
sg109
g133
sg102
I11
sg111
F4.9242730000000003
sg112
g122
sbasb.