ccopy_reg
_reconstructor
p1
(cneat.chromosome
FFChromosome
p2
c__builtin__
object
p3
NtRp4
(dp5
S'species_id'
p6
I17
sS'_connection_genes'
p7
(dp8
(I2
I8
tp9
g1
(cneat.genome
ConnectionGene
p10
g3
NtRp11
(dp12
S'_ConnectionGene__weight'
p13
F0.90313135149095181
sS'_ConnectionGene__in'
p14
I2
sS'_ConnectionGene__enabled'
p15
I01
sS'_ConnectionGene__out'
p16
I8
sS'_ConnectionGene__innov_number'
p17
I14
sbs(I9
I8
tp18
g1
(g10
g3
NtRp19
(dp20
g13
F5.8597315214314971
sg14
I9
sg15
I01
sg16
I8
sg17
I22
sbs(I10
I6
tp21
g1
(g10
g3
NtRp22
(dp23
g13
F3.4240476881729198
sg14
I10
sg15
I01
sg16
I6
sg17
I36
sbs(I1
I6
tp24
g1
(g10
g3
NtRp25
(dp26
g13
F-0.6481329156073774
sg14
I1
sg15
I00
sg16
I6
sg17
I7
sbs(I9
I4
tp27
g1
(g10
g3
NtRp28
(dp29
g13
F-0.93263880576263103
sg14
I9
sg15
I01
sg16
I4
sg17
I17
sbs(I3
I7
tp30
g1
(g10
g3
NtRp31
(dp32
g13
F7.2037352083469948
sg14
I3
sg15
I01
sg16
I7
sg17
I12
sbs(I2
I5
tp33
g1
(g10
g3
NtRp34
(dp35
g13
F-2.4500596111437893
sg14
I2
sg15
I01
sg16
I5
sg17
I5
sbs(I1
I11
tp36
g1
(g10
g3
NtRp37
(dp38
g13
F1.1888126932891288
sg14
I1
sg15
I01
sg16
I11
sg17
I37
sbs(I2
I9
tp39
g1
(g10
g3
NtRp40
(dp41
g13
F0.45900977631689144
sg14
I2
sg15
I01
sg16
I9
sg17
I16
sbs(I3
I10
tp42
g1
(g10
g3
NtRp43
(dp44
g13
F4.6708224173695729
sg14
I3
sg15
I01
sg16
I10
sg17
I24
sbs(I1
I5
tp45
g1
(g10
g3
NtRp46
(dp47
g13
F-3.5246987337057667
sg14
I1
sg15
I01
sg16
I5
sg17
I4
sbs(I3
I6
tp48
g1
(g10
g3
NtRp49
(dp50
g13
F5.0063294823681517
sg14
I3
sg15
I00
sg16
I6
sg17
I9
sbs(I2
I6
tp51
g1
(g10
g3
NtRp52
(dp53
g13
F0.163362164370774
sg14
I2
sg15
I01
sg16
I6
sg17
I8
sbs(I11
I4
tp54
g1
(g10
g3
NtRp55
(dp56
g13
F-4.4109126018261477
sg14
I11
sg15
I01
sg16
I4
sg17
I38
sbs(I1
I4
tp57
g1
(g10
g3
NtRp58
(dp59
g13
F-6.3513039516597196
sg14
I1
sg15
I01
sg16
I4
sg17
I1
sbs(I3
I9
tp60
g1
(g10
g3
NtRp61
(dp62
g13
F4.754358062284366
sg14
I3
sg15
I01
sg16
I9
sg17
I21
sbs(I3
I5
tp63
g1
(g10
g3
NtRp64
(dp65
g13
F3.2075975351102541
sg14
I3
sg15
I01
sg16
I5
sg17
I6
sbs(I2
I7
tp66
g1
(g10
g3
NtRp67
(dp68
g13
F8.3503044228420045
sg14
I2
sg15
I01
sg16
I7
sg17
I11
sbs(I3
I8
tp69
g1
(g10
g3
NtRp70
(dp71
g13
F1.9132992885850681
sg14
I3
sg15
I00
sg16
I8
sg17
I15
sbs(I1
I8
tp72
g1
(g10
g3
NtRp73
(dp74
g13
F-5.5001140562047945
sg14
I1
sg15
I01
sg16
I8
sg17
I13
sbs(I1
I7
tp75
g1
(g10
g3
NtRp76
(dp77
g13
F3.9116491137236173
sg14
I1
sg15
I01
sg16
I7
sg17
I10
sbs(I9
I5
tp78
g1
(g10
g3
NtRp79
(dp80
g13
F1.3256395757151496
sg14
I9
sg15
I01
sg16
I5
sg17
I18
sbs(I3
I4
tp81
g1
(g10
g3
NtRp82
(dp83
g13
F1.3743581145839734
sg14
I3
sg15
I01
sg16
I4
sg17
I3
sbs(I2
I4
tp84
g1
(g10
g3
NtRp85
(dp86
g13
F-8.5696218914385369
sg14
I2
sg15
I01
sg16
I4
sg17
I2
sbssS'_input_nodes'
p87
I3
sS'_output_nodes'
p88
I5
sS'_node_gene_type'
p89
cneat.genome
NodeGene
p90
sS'_FFChromosome__node_order'
p91
(lp92
I10
aI11
aI9
asS'_conn_gene_type'
p93
g10
sS'fitness'
p94
F0.15212181087585921
sS'parent2_id'
p95
I1384
sS'_id'
p96
I1474
sS'parent1_id'
p97
I1385
sS'_node_genes'
p98
(lp99
g1
(g90
g3
NtRp100
(dp101
S'_bias'
p102
I0
sS'_type'
p103
S'INPUT'
p104
sg96
I1
sS'_response'
p105
F4.9242730000000003
sS'_activation_type'
p106
Nsbag1
(g90
g3
NtRp107
(dp108
g102
I0
sg103
g104
sg96
I2
sg105
F4.9242730000000003
sg106
Nsbag1
(g90
g3
NtRp109
(dp110
g102
I0
sg103
g104
sg96
I3
sg105
F4.9242730000000003
sg106
Nsbag1
(g90
g3
NtRp111
(dp112
g102
F-0.31586515482272454
sg103
S'OUTPUT'
p113
sg96
I4
sg105
F3.9733154985752877
sg106
S'tanh'
p114
sbag1
(g90
g3
NtRp115
(dp116
g102
F0.10341128481389045
sg103
g113
sg96
I5
sg105
F4.2104191084314833
sg106
g114
sbag1
(g90
g3
NtRp117
(dp118
g102
F0.2080421220495014
sg103
g113
sg96
I6
sg105
F4.5428320364426016
sg106
g114
sbag1
(g90
g3
NtRp119
(dp120
g102
F-0.75410648373140177
sg103
g113
sg96
I7
sg105
F5.2675254245506942
sg106
g114
sbag1
(g90
g3
NtRp121
(dp122
g102
I0
sg103
g113
sg96
I8
sg105
F5.470633281485072
sg106
g114
sbag1
(g90
g3
NtRp123
(dp124
g102
F0.36654253737687242
sg103
S'HIDDEN'
p125
sg96
I9
sg105
F5.4499498922671101
sg106
g114
sbag1
(g90
g3
NtRp126
(dp127
g102
I0
sg103
g125
sg96
I10
sg105
F4.8612319314820507
sg106
g114
sbag1
(g90
g3
NtRp128
(dp129
g102
I0
sg103
g125
sg96
I11
sg105
F4.9242730000000003
sg106
g114
sbasb.