ccopy_reg
_reconstructor
p1
(cneat.chromosome
FFChromosome
p2
c__builtin__
object
p3
NtRp4
(dp5
S'species_id'
p6
I1
sS'_connection_genes'
p7
(dp8
(I2
I7
tp9
g1
(cneat.genome
ConnectionGene
p10
g3
NtRp11
(dp12
S'_ConnectionGene__weight'
p13
F0.3478202967810255
sS'_ConnectionGene__in'
p14
I2
sS'_ConnectionGene__enabled'
p15
I01
sS'_ConnectionGene__out'
p16
I7
sS'_ConnectionGene__innov_number'
p17
I11
sbs(I2
I6
tp18
g1
(g10
g3
NtRp19
(dp20
g13
F-1.5595311825777531
sg14
I2
sg15
I01
sg16
I6
sg17
I8
sbs(I2
I8
tp21
g1
(g10
g3
NtRp22
(dp23
g13
F0.77485452253716236
sg14
I2
sg15
I01
sg16
I8
sg17
I14
sbs(I1
I4
tp24
g1
(g10
g3
NtRp25
(dp26
g13
F-0.70362560130477037
sg14
I1
sg15
I01
sg16
I4
sg17
I1
sbs(I3
I8
tp27
g1
(g10
g3
NtRp28
(dp29
g13
F-0.37603708660351576
sg14
I3
sg15
I01
sg16
I8
sg17
I15
sbs(I1
I5
tp30
g1
(g10
g3
NtRp31
(dp32
g13
F1.1203936037394058
sg14
I1
sg15
I01
sg16
I5
sg17
I4
sbs(I1
I8
tp33
g1
(g10
g3
NtRp34
(dp35
g13
F0.50327333565765109
sg14
I1
sg15
I01
sg16
I8
sg17
I13
sbs(I1
I6
tp36
g1
(g10
g3
NtRp37
(dp38
g13
F0.071187251900683327
sg14
I1
sg15
I01
sg16
I6
sg17
I7
sbs(I3
I6
tp39
g1
(g10
g3
NtRp40
(dp41
g13
F-0.61044353130276041
sg14
I3
sg15
I01
sg16
I6
sg17
I9
sbs(I1
I7
tp42
g1
(g10
g3
NtRp43
(dp44
g13
F-1.0331750655908889
sg14
I1
sg15
I01
sg16
I7
sg17
I10
sbs(I3
I7
tp45
g1
(g10
g3
NtRp46
(dp47
g13
F1.6534794641994666
sg14
I3
sg15
I01
sg16
I7
sg17
I12
sbs(I2
I5
tp48
g1
(g10
g3
NtRp49
(dp50
g13
F-0.22837138663555553
sg14
I2
sg15
I01
sg16
I5
sg17
I5
sbs(I3
I4
tp51
g1
(g10
g3
NtRp52
(dp53
g13
F1.5196428866924565
sg14
I3
sg15
I01
sg16
I4
sg17
I3
sbs(I2
I4
tp54
g1
(g10
g3
NtRp55
(dp56
g13
F-0.87901300232143331
sg14
I2
sg15
I01
sg16
I4
sg17
I2
sbs(I3
I5
tp57
g1
(g10
g3
NtRp58
(dp59
g13
F1.9678246849774603
sg14
I3
sg15
I01
sg16
I5
sg17
I6
sbssS'_input_nodes'
p60
I3
sS'_output_nodes'
p61
I5
sS'_node_gene_type'
p62
cneat.genome
NodeGene
p63
sS'_FFChromosome__node_order'
p64
(lp65
sS'_conn_gene_type'
p66
g10
sS'fitness'
p67
F0.1169575266229405
sS'parent2_id'
p68
I0
sS'_id'
p69
I34
sS'parent1_id'
p70
I0
sS'_node_genes'
p71
(lp72
g1
(g63
g3
NtRp73
(dp74
S'_bias'
p75
I0
sS'_type'
p76
S'INPUT'
p77
sg69
I1
sS'_response'
p78
F4.9242730000000003
sS'_activation_type'
p79
Nsbag1
(g63
g3
NtRp80
(dp81
g75
I0
sg76
g77
sg69
I2
sg78
F4.9242730000000003
sg79
Nsbag1
(g63
g3
NtRp82
(dp83
g75
I0
sg76
g77
sg69
I3
sg78
F4.9242730000000003
sg79
Nsbag1
(g63
g3
NtRp84
(dp85
g75
I0
sg76
S'OUTPUT'
p86
sg69
I4
sg78
F4.9242730000000003
sg79
S'tanh'
p87
sbag1
(g63
g3
NtRp88
(dp89
g75
I0
sg76
g86
sg69
I5
sg78
F4.9242730000000003
sg79
g87
sbag1
(g63
g3
NtRp90
(dp91
g75
I0
sg76
g86
sg69
I6
sg78
F4.9242730000000003
sg79
g87
sbag1
(g63
g3
NtRp92
(dp93
g75
I0
sg76
g86
sg69
I7
sg78
F4.9242730000000003
sg79
g87
sbag1
(g63
g3
NtRp94
(dp95
g75
I0
sg76
g86
sg69
I8
sg78
F4.9242730000000003
sg79
g87
sbasb.