ccopy_reg
_reconstructor
p1
(cneat.chromosome
FFChromosome
p2
c__builtin__
object
p3
NtRp4
(dp5
S'species_id'
p6
I1
sS'_connection_genes'
p7
(dp8
(I4
I7
tp9
g1
(cneat.genome
ConnectionGene
p10
g3
NtRp11
(dp12
S'_ConnectionGene__weight'
p13
F-0.52537972739823147
sS'_ConnectionGene__in'
p14
I4
sS'_ConnectionGene__enabled'
p15
I01
sS'_ConnectionGene__out'
p16
I7
sS'_ConnectionGene__innov_number'
p17
I12
sbs(I4
I8
tp18
g1
(g10
g3
NtRp19
(dp20
g13
F-0.97627455753706238
sg14
I4
sg15
I01
sg16
I8
sg17
I16
sbs(I2
I8
tp21
g1
(g10
g3
NtRp22
(dp23
g13
F0.67051021670396516
sg14
I2
sg15
I01
sg16
I8
sg17
I14
sbs(I10
I6
tp24
g1
(g10
g3
NtRp25
(dp26
g13
F-0.15518169531398307
sg14
I10
sg15
I01
sg16
I6
sg17
I24
sbs(I1
I6
tp27
g1
(g10
g3
NtRp28
(dp29
g13
F-1.9475467183285902
sg14
I1
sg15
I01
sg16
I6
sg17
I5
sbs(I3
I7
tp30
g1
(g10
g3
NtRp31
(dp32
g13
F-0.074071992350202731
sg14
I3
sg15
I01
sg16
I7
sg17
I11
sbs(I2
I5
tp33
g1
(g10
g3
NtRp34
(dp35
g13
F-1.9329601696343457
sg14
I2
sg15
I01
sg16
I5
sg17
I2
sbs(I10
I8
tp36
g1
(g10
g3
NtRp37
(dp38
g13
F-0.42516949107437596
sg14
I10
sg15
I01
sg16
I8
sg17
I33
sbs(I4
I9
tp39
g1
(g10
g3
NtRp40
(dp41
g13
F2.1345097589993824
sg14
I4
sg15
I01
sg16
I9
sg17
I20
sbs(I2
I9
tp42
g1
(g10
g3
NtRp43
(dp44
g13
F1.6255691975764979
sg14
I2
sg15
I01
sg16
I9
sg17
I18
sbs(I10
I7
tp45
g1
(g10
g3
NtRp46
(dp47
g13
F0.36244178637343194
sg14
I10
sg15
I01
sg16
I7
sg17
I27
sbs(I1
I5
tp48
g1
(g10
g3
NtRp49
(dp50
g13
F-2.5536896798573387
sg14
I1
sg15
I01
sg16
I5
sg17
I1
sbs(I3
I6
tp51
g1
(g10
g3
NtRp52
(dp53
g13
F9.2220057146010372
sg14
I3
sg15
I01
sg16
I6
sg17
I7
sbs(I10
I9
tp54
g1
(g10
g3
NtRp55
(dp56
g13
F0.19214696639087669
sg14
I10
sg15
I01
sg16
I9
sg17
I30
sbs(I2
I6
tp57
g1
(g10
g3
NtRp58
(dp59
g13
F-0.46957925109683796
sg14
I2
sg15
I01
sg16
I6
sg17
I6
sbs(I4
I5
tp60
g1
(g10
g3
NtRp61
(dp62
g13
F-1.2870856613990538
sg14
I4
sg15
I01
sg16
I5
sg17
I4
sbs(I2
I10
tp63
g1
(g10
g3
NtRp64
(dp65
g13
F2.468379773836729
sg14
I2
sg15
I01
sg16
I10
sg17
I26
sbs(I3
I9
tp66
g1
(g10
g3
NtRp67
(dp68
g13
F2.8215631946401065
sg14
I3
sg15
I01
sg16
I9
sg17
I19
sbs(I1
I9
tp69
g1
(g10
g3
NtRp70
(dp71
g13
F4.1893035196850734
sg14
I1
sg15
I01
sg16
I9
sg17
I17
sbs(I3
I5
tp72
g1
(g10
g3
NtRp73
(dp74
g13
F-1.8689178743765302
sg14
I3
sg15
I01
sg16
I5
sg17
I3
sbs(I2
I7
tp75
g1
(g10
g3
NtRp76
(dp77
g13
F-0.53027630873684772
sg14
I2
sg15
I01
sg16
I7
sg17
I10
sbs(I4
I6
tp78
g1
(g10
g3
NtRp79
(dp80
g13
F-0.30967762308426638
sg14
I4
sg15
I01
sg16
I6
sg17
I8
sbs(I3
I8
tp81
g1
(g10
g3
NtRp82
(dp83
g13
F1.5928229225678034
sg14
I3
sg15
I01
sg16
I8
sg17
I15
sbs(I1
I8
tp84
g1
(g10
g3
NtRp85
(dp86
g13
F2.531944878410239
sg14
I1
sg15
I01
sg16
I8
sg17
I13
sbs(I1
I7
tp87
g1
(g10
g3
NtRp88
(dp89
g13
F1.5246968868495538
sg14
I1
sg15
I01
sg16
I7
sg17
I9
sbssS'_input_nodes'
p90
I4
sS'_output_nodes'
p91
I5
sS'_node_gene_type'
p92
cneat.genome
NodeGene
p93
sS'_FFChromosome__node_order'
p94
(lp95
I10
asS'_conn_gene_type'
p96
g10
sS'fitness'
p97
F0.4358974358974359
sS'parent2_id'
p98
I868
sS'_id'
p99
I1036
sS'parent1_id'
p100
I949
sS'_node_genes'
p101
(lp102
g1
(g93
g3
NtRp103
(dp104
S'_bias'
p105
I0
sS'_type'
p106
S'INPUT'
p107
sg99
I1
sS'_response'
p108
F4.9242730000000003
sS'_activation_type'
p109
Nsbag1
(g93
g3
NtRp110
(dp111
g105
I0
sg106
g107
sg99
I2
sg108
F4.9242730000000003
sg109
Nsbag1
(g93
g3
NtRp112
(dp113
g105
I0
sg106
g107
sg99
I3
sg108
F4.9242730000000003
sg109
Nsbag1
(g93
g3
NtRp114
(dp115
g105
I0
sg106
g107
sg99
I4
sg108
F4.9242730000000003
sg109
Nsbag1
(g93
g3
NtRp116
(dp117
g105
I0
sg106
S'OUTPUT'
p118
sg99
I5
sg108
F4.9242730000000003
sg109
S'tanh'
p119
sbag1
(g93
g3
NtRp120
(dp121
g105
F0.54056676393557679
sg106
g118
sg99
I6
sg108
F4.9242730000000003
sg109
g119
sbag1
(g93
g3
NtRp122
(dp123
g105
I0
sg106
g118
sg99
I7
sg108
F4.9242730000000003
sg109
g119
sbag1
(g93
g3
NtRp124
(dp125
g105
F-0.64574697697268357
sg106
g118
sg99
I8
sg108
F4.9242730000000003
sg109
g119
sbag1
(g93
g3
NtRp126
(dp127
g105
I0
sg106
g118
sg99
I9
sg108
F4.9242730000000003
sg109
g119
sbag1
(g93
g3
NtRp128
(dp129
g105
I0
sg106
S'HIDDEN'
p130
sg99
I10
sg108
F4.9242730000000003
sg109
g119
sbasb.