ccopy_reg
_reconstructor
p1
(cneat.chromosome
FFChromosome
p2
c__builtin__
object
p3
NtRp4
(dp5
S'species_id'
p6
I1
sS'_connection_genes'
p7
(dp8
(I2
I7
tp9
g1
(cneat.genome
ConnectionGene
p10
g3
NtRp11
(dp12
S'_ConnectionGene__weight'
p13
F3.0362692817892971
sS'_ConnectionGene__in'
p14
I2
sS'_ConnectionGene__enabled'
p15
I01
sS'_ConnectionGene__out'
p16
I7
sS'_ConnectionGene__innov_number'
p17
I10
sbs(I4
I7
tp18
g1
(g10
g3
NtRp19
(dp20
g13
F-0.78748949280578795
sg14
I4
sg15
I01
sg16
I7
sg17
I12
sbs(I2
I6
tp21
g1
(g10
g3
NtRp22
(dp23
g13
F-0.44525184091281894
sg14
I2
sg15
I01
sg16
I6
sg17
I6
sbs(I4
I9
tp24
g1
(g10
g3
NtRp25
(dp26
g13
F-1.6822387427226908
sg14
I4
sg15
I01
sg16
I9
sg17
I20
sbs(I4
I6
tp27
g1
(g10
g3
NtRp28
(dp29
g13
F-0.32413574263148215
sg14
I4
sg15
I01
sg16
I6
sg17
I8
sbs(I2
I9
tp30
g1
(g10
g3
NtRp31
(dp32
g13
F3.8635007765492784
sg14
I2
sg15
I01
sg16
I9
sg17
I18
sbs(I4
I8
tp33
g1
(g10
g3
NtRp34
(dp35
g13
F0.88009369705472196
sg14
I4
sg15
I01
sg16
I8
sg17
I16
sbs(I4
I5
tp36
g1
(g10
g3
NtRp37
(dp38
g13
F-1.9641991168912922
sg14
I4
sg15
I01
sg16
I5
sg17
I4
sbs(I2
I8
tp39
g1
(g10
g3
NtRp40
(dp41
g13
F2.0083044105297256
sg14
I2
sg15
I01
sg16
I8
sg17
I14
sbs(I3
I8
tp42
g1
(g10
g3
NtRp43
(dp44
g13
F-3.5699844472797078
sg14
I3
sg15
I01
sg16
I8
sg17
I15
sbs(I1
I5
tp45
g1
(g10
g3
NtRp46
(dp47
g13
F-3.5653246661875992
sg14
I1
sg15
I01
sg16
I5
sg17
I1
sbs(I1
I8
tp48
g1
(g10
g3
NtRp49
(dp50
g13
F2.0968864033053261
sg14
I1
sg15
I01
sg16
I8
sg17
I13
sbs(I3
I9
tp51
g1
(g10
g3
NtRp52
(dp53
g13
F-2.2517475757502758
sg14
I3
sg15
I01
sg16
I9
sg17
I19
sbs(I1
I6
tp54
g1
(g10
g3
NtRp55
(dp56
g13
F1.5517127411906078
sg14
I1
sg15
I01
sg16
I6
sg17
I5
sbs(I1
I9
tp57
g1
(g10
g3
NtRp58
(dp59
g13
F9.265464406148137
sg14
I1
sg15
I01
sg16
I9
sg17
I17
sbs(I3
I6
tp60
g1
(g10
g3
NtRp61
(dp62
g13
F7.3822908159116194
sg14
I3
sg15
I01
sg16
I6
sg17
I7
sbs(I1
I7
tp63
g1
(g10
g3
NtRp64
(dp65
g13
F-7.4739485176430174
sg14
I1
sg15
I01
sg16
I7
sg17
I9
sbs(I3
I7
tp66
g1
(g10
g3
NtRp67
(dp68
g13
F-0.92723619870274265
sg14
I3
sg15
I01
sg16
I7
sg17
I11
sbs(I2
I5
tp69
g1
(g10
g3
NtRp70
(dp71
g13
F-2.7400498184959745
sg14
I2
sg15
I01
sg16
I5
sg17
I2
sbs(I3
I5
tp72
g1
(g10
g3
NtRp73
(dp74
g13
F1.2568275488729694
sg14
I3
sg15
I01
sg16
I5
sg17
I3
sbssS'_input_nodes'
p75
I4
sS'_output_nodes'
p76
I5
sS'_node_gene_type'
p77
cneat.genome
NodeGene
p78
sS'_FFChromosome__node_order'
p79
(lp80
sS'_conn_gene_type'
p81
g10
sS'fitness'
p82
F0.079472254199595388
sS'parent2_id'
p83
I704
sS'_id'
p84
I806
sS'parent1_id'
p85
I783
sS'_node_genes'
p86
(lp87
g1
(g78
g3
NtRp88
(dp89
S'_bias'
p90
I0
sS'_type'
p91
S'INPUT'
p92
sg84
I1
sS'_response'
p93
F4.9242730000000003
sS'_activation_type'
p94
Nsbag1
(g78
g3
NtRp95
(dp96
g90
I0
sg91
g92
sg84
I2
sg93
F4.9242730000000003
sg94
Nsbag1
(g78
g3
NtRp97
(dp98
g90
I0
sg91
g92
sg84
I3
sg93
F4.9242730000000003
sg94
Nsbag1
(g78
g3
NtRp99
(dp100
g90
I0
sg91
g92
sg84
I4
sg93
F4.9242730000000003
sg94
Nsbag1
(g78
g3
NtRp101
(dp102
g90
F0.36057682631528798
sg91
S'OUTPUT'
p103
sg84
I5
sg93
F5.3878262521642908
sg94
S'tanh'
p104
sbag1
(g78
g3
NtRp105
(dp106
g90
F-0.16579747785736482
sg91
g103
sg84
I6
sg93
F5.8712070847363371
sg94
g104
sbag1
(g78
g3
NtRp107
(dp108
g90
F-0.36106415664088237
sg91
g103
sg84
I7
sg93
F4.6714649512382769
sg94
g104
sbag1
(g78
g3
NtRp109
(dp110
g90
F0.26901668758975084
sg91
g103
sg84
I8
sg93
F4.9242730000000003
sg94
g104
sbag1
(g78
g3
NtRp111
(dp112
g90
I0
sg91
g103
sg84
I9
sg93
F4.9242730000000003
sg94
g104
sbasb.