ccopy_reg
_reconstructor
p1
(cneat.chromosome
FFChromosome
p2
c__builtin__
object
p3
NtRp4
(dp5
S'species_id'
p6
I13
sS'_connection_genes'
p7
(dp8
(I4
I7
tp9
g1
(cneat.genome
ConnectionGene
p10
g3
NtRp11
(dp12
S'_ConnectionGene__weight'
p13
F-0.52537972739823147
sS'_ConnectionGene__in'
p14
I4
sS'_ConnectionGene__enabled'
p15
I01
sS'_ConnectionGene__out'
p16
I7
sS'_ConnectionGene__innov_number'
p17
I12
sbs(I4
I8
tp18
g1
(g10
g3
NtRp19
(dp20
g13
F-0.97627455753706238
sg14
I4
sg15
I01
sg16
I8
sg17
I16
sbs(I2
I8
tp21
g1
(g10
g3
NtRp22
(dp23
g13
F0.67051021670396516
sg14
I2
sg15
I01
sg16
I8
sg17
I14
sbs(I10
I6
tp24
g1
(g10
g3
NtRp25
(dp26
g13
F-0.15518169531398307
sg14
I10
sg15
I01
sg16
I6
sg17
I24
sbs(I1
I6
tp27
g1
(g10
g3
NtRp28
(dp29
g13
F-1.9475467183285902
sg14
I1
sg15
I01
sg16
I6
sg17
I5
sbs(I3
I7
tp30
g1
(g10
g3
NtRp31
(dp32
g13
F-0.074071992350202731
sg14
I3
sg15
I01
sg16
I7
sg17
I11
sbs(I2
I5
tp33
g1
(g10
g3
NtRp34
(dp35
g13
F-1.9329601696343457
sg14
I2
sg15
I01
sg16
I5
sg17
I2
sbs(I1
I11
tp36
g1
(g10
g3
NtRp37
(dp38
g13
F1
sg14
I1
sg15
I01
sg16
I11
sg17
I28
sbs(I10
I8
tp39
g1
(g10
g3
NtRp40
(dp41
g13
F-0.42516949107437596
sg14
I10
sg15
I01
sg16
I8
sg17
I33
sbs(I4
I9
tp42
g1
(g10
g3
NtRp43
(dp44
g13
F2.1345097589993824
sg14
I4
sg15
I01
sg16
I9
sg17
I20
sbs(I2
I9
tp45
g1
(g10
g3
NtRp46
(dp47
g13
F1.6255691975764979
sg14
I2
sg15
I01
sg16
I9
sg17
I18
sbs(I10
I7
tp48
g1
(g10
g3
NtRp49
(dp50
g13
F-1.0231191294383339
sg14
I10
sg15
I01
sg16
I7
sg17
I27
sbs(I3
I10
tp51
g1
(g10
g3
NtRp52
(dp53
g13
F1.3040528083636653
sg14
I3
sg15
I01
sg16
I10
sg17
I21
sbs(I1
I5
tp54
g1
(g10
g3
NtRp55
(dp56
g13
F-2.5536896798573387
sg14
I1
sg15
I01
sg16
I5
sg17
I1
sbs(I3
I6
tp57
g1
(g10
g3
NtRp58
(dp59
g13
F9.2220057146010372
sg14
I3
sg15
I01
sg16
I6
sg17
I7
sbs(I1
I10
tp60
g1
(g10
g3
NtRp61
(dp62
g13
F0.60870099850864379
sg14
I1
sg15
I01
sg16
I10
sg17
I23
sbs(I4
I10
tp63
g1
(g10
g3
NtRp64
(dp65
g13
F1.4573729886366102
sg14
I4
sg15
I01
sg16
I10
sg17
I25
sbs(I2
I6
tp66
g1
(g10
g3
NtRp67
(dp68
g13
F-0.46957925109683796
sg14
I2
sg15
I01
sg16
I6
sg17
I6
sbs(I4
I5
tp69
g1
(g10
g3
NtRp70
(dp71
g13
F-1.2870856613990538
sg14
I4
sg15
I01
sg16
I5
sg17
I4
sbs(I2
I10
tp72
g1
(g10
g3
NtRp73
(dp74
g13
F2.468379773836729
sg14
I2
sg15
I01
sg16
I10
sg17
I26
sbs(I3
I9
tp75
g1
(g10
g3
NtRp76
(dp77
g13
F2.8215631946401065
sg14
I3
sg15
I01
sg16
I9
sg17
I19
sbs(I1
I9
tp78
g1
(g10
g3
NtRp79
(dp80
g13
F4.1893035196850734
sg14
I1
sg15
I01
sg16
I9
sg17
I17
sbs(I3
I5
tp81
g1
(g10
g3
NtRp82
(dp83
g13
F-1.8689178743765302
sg14
I3
sg15
I01
sg16
I5
sg17
I3
sbs(I2
I7
tp84
g1
(g10
g3
NtRp85
(dp86
g13
F-0.53027630873684772
sg14
I2
sg15
I01
sg16
I7
sg17
I10
sbs(I11
I7
tp87
g1
(g10
g3
NtRp88
(dp89
g13
F1.5246968868495538
sg14
I11
sg15
I01
sg16
I7
sg17
I34
sbs(I10
I5
tp90
g1
(g10
g3
NtRp91
(dp92
g13
F1.0014416400347628
sg14
I10
sg15
I01
sg16
I5
sg17
I22
sbs(I4
I6
tp93
g1
(g10
g3
NtRp94
(dp95
g13
F-0.30967762308426638
sg14
I4
sg15
I01
sg16
I6
sg17
I8
sbs(I3
I8
tp96
g1
(g10
g3
NtRp97
(dp98
g13
F1.5928229225678034
sg14
I3
sg15
I01
sg16
I8
sg17
I15
sbs(I1
I8
tp99
g1
(g10
g3
NtRp100
(dp101
g13
F2.531944878410239
sg14
I1
sg15
I01
sg16
I8
sg17
I13
sbs(I1
I7
tp102
g1
(g10
g3
NtRp103
(dp104
g13
F1.5246968868495538
sg14
I1
sg15
I00
sg16
I7
sg17
I9
sbssS'_input_nodes'
p105
I4
sS'_output_nodes'
p106
I5
sS'_node_gene_type'
p107
cneat.genome
NodeGene
p108
sS'_FFChromosome__node_order'
p109
(lp110
I11
aI10
asS'_conn_gene_type'
p111
g10
sS'fitness'
p112
F0.5
sS'parent2_id'
p113
I1217
sS'_id'
p114
I1374
sS'parent1_id'
p115
I1217
sS'_node_genes'
p116
(lp117
g1
(g108
g3
NtRp118
(dp119
S'_bias'
p120
I0
sS'_type'
p121
S'INPUT'
p122
sg114
I1
sS'_response'
p123
F4.9242730000000003
sS'_activation_type'
p124
Nsbag1
(g108
g3
NtRp125
(dp126
g120
I0
sg121
g122
sg114
I2
sg123
F4.9242730000000003
sg124
Nsbag1
(g108
g3
NtRp127
(dp128
g120
I0
sg121
g122
sg114
I3
sg123
F4.9242730000000003
sg124
Nsbag1
(g108
g3
NtRp129
(dp130
g120
I0
sg121
g122
sg114
I4
sg123
F4.9242730000000003
sg124
Nsbag1
(g108
g3
NtRp131
(dp132
g120
I0
sg121
S'OUTPUT'
p133
sg114
I5
sg123
F4.9242730000000003
sg124
S'tanh'
p134
sbag1
(g108
g3
NtRp135
(dp136
g120
F0.54056676393557679
sg121
g133
sg114
I6
sg123
F4.9242730000000003
sg124
g134
sbag1
(g108
g3
NtRp137
(dp138
g120
I0
sg121
g133
sg114
I7
sg123
F4.9242730000000003
sg124
g134
sbag1
(g108
g3
NtRp139
(dp140
g120
F-0.64574697697268357
sg121
g133
sg114
I8
sg123
F4.9242730000000003
sg124
g134
sbag1
(g108
g3
NtRp141
(dp142
g120
I0
sg121
g133
sg114
I9
sg123
F4.9242730000000003
sg124
g134
sbag1
(g108
g3
NtRp143
(dp144
g120
I0
sg121
S'HIDDEN'
p145
sg114
I10
sg123
F4.9242730000000003
sg124
g134
sbag1
(g108
g3
NtRp146
(dp147
g120
I0
sg121
g145
sg114
I11
sg123
F4.9242730000000003
sg124
g134
sbasb.