ccopy_reg
_reconstructor
p1
(cneat.chromosome
FFChromosome
p2
c__builtin__
object
p3
NtRp4
(dp5
S'species_id'
p6
I42
sS'_connection_genes'
p7
(dp8
(I4
I7
tp9
g1
(cneat.genome
ConnectionGene
p10
g3
NtRp11
(dp12
S'_ConnectionGene__weight'
p13
F0.55044582099573658
sS'_ConnectionGene__in'
p14
I4
sS'_ConnectionGene__enabled'
p15
I01
sS'_ConnectionGene__out'
p16
I7
sS'_ConnectionGene__innov_number'
p17
I12
sbs(I4
I8
tp18
g1
(g10
g3
NtRp19
(dp20
g13
F-0.97627455753706238
sg14
I4
sg15
I01
sg16
I8
sg17
I16
sbs(I2
I8
tp21
g1
(g10
g3
NtRp22
(dp23
g13
F0.3530420847502731
sg14
I2
sg15
I01
sg16
I8
sg17
I14
sbs(I10
I6
tp24
g1
(g10
g3
NtRp25
(dp26
g13
F-0.27477349183507738
sg14
I10
sg15
I01
sg16
I6
sg17
I24
sbs(I3
I11
tp27
g1
(g10
g3
NtRp28
(dp29
g13
F1.8232594231544945
sg14
I3
sg15
I01
sg16
I11
sg17
I31
sbs(I4
I12
tp30
g1
(g10
g3
NtRp31
(dp32
g13
F2.1411250555164054
sg14
I4
sg15
I01
sg16
I12
sg17
I40
sbs(I1
I6
tp33
g1
(g10
g3
NtRp34
(dp35
g13
F-1.0467016934992082
sg14
I1
sg15
I01
sg16
I6
sg17
I5
sbs(I2
I12
tp36
g1
(g10
g3
NtRp37
(dp38
g13
F2.3327721337298897
sg14
I2
sg15
I01
sg16
I12
sg17
I47
sbs(I3
I7
tp39
g1
(g10
g3
NtRp40
(dp41
g13
F0.99127424173894418
sg14
I3
sg15
I00
sg16
I7
sg17
I11
sbs(I2
I5
tp42
g1
(g10
g3
NtRp43
(dp44
g13
F-2.1958833051398754
sg14
I2
sg15
I01
sg16
I5
sg17
I2
sbs(I1
I11
tp45
g1
(g10
g3
NtRp46
(dp47
g13
F-0.66492585738229049
sg14
I1
sg15
I01
sg16
I11
sg17
I28
sbs(I14
I9
tp48
g1
(g10
g3
NtRp49
(dp50
g13
F4.4108395546433137
sg14
I14
sg15
I01
sg16
I9
sg17
I54
sbs(I3
I14
tp51
g1
(g10
g3
NtRp52
(dp53
g13
F1
sg14
I3
sg15
I01
sg16
I14
sg17
I76
sbs(I10
I8
tp54
g1
(g10
g3
NtRp55
(dp56
g13
F-1.3122576745194572
sg14
I10
sg15
I01
sg16
I8
sg17
I33
sbs(I4
I9
tp57
g1
(g10
g3
NtRp58
(dp59
g13
F2.1345097589993824
sg14
I4
sg15
I01
sg16
I9
sg17
I20
sbs(I2
I9
tp60
g1
(g10
g3
NtRp61
(dp62
g13
F1.6255691975764979
sg14
I2
sg15
I01
sg16
I9
sg17
I18
sbs(I3
I10
tp63
g1
(g10
g3
NtRp64
(dp65
g13
F-0.17063986042765644
sg14
I3
sg15
I01
sg16
I10
sg17
I21
sbs(I1
I14
tp66
g1
(g10
g3
NtRp67
(dp68
g13
F-1.0949846436867678
sg14
I1
sg15
I01
sg16
I14
sg17
I77
sbs(I12
I6
tp69
g1
(g10
g3
NtRp70
(dp71
g13
F-2.8692362900090149
sg14
I12
sg15
I01
sg16
I6
sg17
I42
sbs(I1
I5
tp72
g1
(g10
g3
NtRp73
(dp74
g13
F-2.5536896798573387
sg14
I1
sg15
I01
sg16
I5
sg17
I1
sbs(I3
I6
tp75
g1
(g10
g3
NtRp76
(dp77
g13
F9.2220057146010372
sg14
I3
sg15
I01
sg16
I6
sg17
I7
sbs(I1
I10
tp78
g1
(g10
g3
NtRp79
(dp80
g13
F-2.4483148565009776
sg14
I1
sg15
I01
sg16
I10
sg17
I23
sbs(I2
I6
tp81
g1
(g10
g3
NtRp82
(dp83
g13
F-0.22658702415153653
sg14
I2
sg15
I01
sg16
I6
sg17
I6
sbs(I3
I13
tp84
g1
(g10
g3
NtRp85
(dp86
g13
F0.1341632407496135
sg14
I3
sg15
I01
sg16
I13
sg17
I66
sbs(I4
I5
tp87
g1
(g10
g3
NtRp88
(dp89
g13
F-1.20355012610648
sg14
I4
sg15
I01
sg16
I5
sg17
I4
sbs(I12
I7
tp90
g1
(g10
g3
NtRp91
(dp92
g13
F-1.8199285896596917
sg14
I12
sg15
I01
sg16
I7
sg17
I50
sbs(I2
I10
tp93
g1
(g10
g3
NtRp94
(dp95
g13
F2.4439000638271429
sg14
I2
sg15
I01
sg16
I10
sg17
I26
sbs(I3
I9
tp96
g1
(g10
g3
NtRp97
(dp98
g13
F4.4108395546433137
sg14
I3
sg15
I00
sg16
I9
sg17
I19
sbs(I1
I9
tp99
g1
(g10
g3
NtRp100
(dp101
g13
F3.4192492310562157
sg14
I1
sg15
I01
sg16
I9
sg17
I17
sbs(I3
I5
tp102
g1
(g10
g3
NtRp103
(dp104
g13
F-1.5241478764701588
sg14
I3
sg15
I01
sg16
I5
sg17
I3
sbs(I2
I7
tp105
g1
(g10
g3
NtRp106
(dp107
g13
F-4.2025402118769266
sg14
I2
sg15
I01
sg16
I7
sg17
I10
sbs(I11
I7
tp108
g1
(g10
g3
NtRp109
(dp110
g13
F-0.074071992350202731
sg14
I11
sg15
I01
sg16
I7
sg17
I34
sbs(I10
I5
tp111
g1
(g10
g3
NtRp112
(dp113
g13
F-0.036244016313322414
sg14
I10
sg15
I01
sg16
I5
sg17
I22
sbs(I4
I6
tp114
g1
(g10
g3
NtRp115
(dp116
g13
F-0.94899091306188055
sg14
I4
sg15
I00
sg16
I6
sg17
I8
sbs(I3
I8
tp117
g1
(g10
g3
NtRp118
(dp119
g13
F-1.7585073733812724
sg14
I3
sg15
I01
sg16
I8
sg17
I15
sbs(I1
I8
tp120
g1
(g10
g3
NtRp121
(dp122
g13
F2.752866624873108
sg14
I1
sg15
I01
sg16
I8
sg17
I13
sbs(I1
I7
tp123
g1
(g10
g3
NtRp124
(dp125
g13
F1.2332076342580545
sg14
I1
sg15
I01
sg16
I7
sg17
I9
sbs(I13
I9
tp126
g1
(g10
g3
NtRp127
(dp128
g13
F4.6991330936519766
sg14
I13
sg15
I01
sg16
I9
sg17
I60
sbssS'_input_nodes'
p129
I4
sS'_output_nodes'
p130
I5
sS'_node_gene_type'
p131
cneat.genome
NodeGene
p132
sS'_FFChromosome__node_order'
p133
(lp134
I13
aI11
aI14
aI10
aI12
asS'_conn_gene_type'
p135
g10
sS'fitness'
p136
F0.52564102564102566
sS'parent2_id'
p137
I2099
sS'_id'
p138
I2247
sS'parent1_id'
p139
I2099
sS'_node_genes'
p140
(lp141
g1
(g132
g3
NtRp142
(dp143
S'_bias'
p144
I0
sS'_type'
p145
S'INPUT'
p146
sg138
I1
sS'_response'
p147
F4.9242730000000003
sS'_activation_type'
p148
Nsbag1
(g132
g3
NtRp149
(dp150
g144
I0
sg145
g146
sg138
I2
sg147
F4.9242730000000003
sg148
Nsbag1
(g132
g3
NtRp151
(dp152
g144
I0
sg145
g146
sg138
I3
sg147
F4.9242730000000003
sg148
Nsbag1
(g132
g3
NtRp153
(dp154
g144
I0
sg145
g146
sg138
I4
sg147
F4.9242730000000003
sg148
Nsbag1
(g132
g3
NtRp155
(dp156
g144
I0
sg145
S'OUTPUT'
p157
sg138
I5
sg147
F4.9242730000000003
sg148
S'tanh'
p158
sbag1
(g132
g3
NtRp159
(dp160
g144
F0.54056676393557679
sg145
g157
sg138
I6
sg147
F4.9242730000000003
sg148
g158
sbag1
(g132
g3
NtRp161
(dp162
g144
I0
sg145
g157
sg138
I7
sg147
F4.9242730000000003
sg148
g158
sbag1
(g132
g3
NtRp163
(dp164
g144
F-0.64574697697268357
sg145
g157
sg138
I8
sg147
F4.9242730000000003
sg148
g158
sbag1
(g132
g3
NtRp165
(dp166
g144
F-0.52587695625489261
sg145
g157
sg138
I9
sg147
F4.9242730000000003
sg148
g158
sbag1
(g132
g3
NtRp167
(dp168
g144
I0
sg145
S'HIDDEN'
p169
sg138
I10
sg147
F4.5775628967299173
sg148
g158
sbag1
(g132
g3
NtRp170
(dp171
g144
I0
sg145
g169
sg138
I11
sg147
F4.9242730000000003
sg148
g158
sbag1
(g132
g3
NtRp172
(dp173
g144
I0
sg145
g169
sg138
I12
sg147
F4.9242730000000003
sg148
g158
sbag1
(g132
g3
NtRp174
(dp175
g144
I0
sg145
g169
sg138
I13
sg147
F4.9242730000000003
sg148
g158
sbag1
(g132
g3
NtRp176
(dp177
g144
I0
sg145
g169
sg138
I14
sg147
F4.9242730000000003
sg148
g158
sbasb.