ccopy_reg
_reconstructor
p1
(cneat.chromosome
FFChromosome
p2
c__builtin__
object
p3
NtRp4
(dp5
S'species_id'
p6
I31
sS'_connection_genes'
p7
(dp8
(I4
I7
tp9
g1
(cneat.genome
ConnectionGene
p10
g3
NtRp11
(dp12
S'_ConnectionGene__weight'
p13
F1.5570973738579721
sS'_ConnectionGene__in'
p14
I4
sS'_ConnectionGene__enabled'
p15
I01
sS'_ConnectionGene__out'
p16
I7
sS'_ConnectionGene__innov_number'
p17
I12
sbs(I4
I8
tp18
g1
(g10
g3
NtRp19
(dp20
g13
F-2.7248662997315254
sg14
I4
sg15
I01
sg16
I8
sg17
I16
sbs(I2
I8
tp21
g1
(g10
g3
NtRp22
(dp23
g13
F0.87804497185774832
sg14
I2
sg15
I01
sg16
I8
sg17
I14
sbs(I4
I12
tp24
g1
(g10
g3
NtRp25
(dp26
g13
F-0.14571241917877198
sg14
I4
sg15
I01
sg16
I12
sg17
I40
sbs(I1
I6
tp27
g1
(g10
g3
NtRp28
(dp29
g13
F-1.5340168011660453
sg14
I1
sg15
I01
sg16
I6
sg17
I5
sbs(I3
I7
tp30
g1
(g10
g3
NtRp31
(dp32
g13
F-4.0590783552264647
sg14
I3
sg15
I00
sg16
I7
sg17
I11
sbs(I2
I5
tp33
g1
(g10
g3
NtRp34
(dp35
g13
F-0.035604042065294564
sg14
I2
sg15
I00
sg16
I5
sg17
I2
sbs(I12
I9
tp36
g1
(g10
g3
NtRp37
(dp38
g13
F3.4199208547144555
sg14
I12
sg15
I01
sg16
I9
sg17
I37
sbs(I4
I9
tp39
g1
(g10
g3
NtRp40
(dp41
g13
F1.9501236796571784
sg14
I4
sg15
I00
sg16
I9
sg17
I20
sbs(I2
I9
tp42
g1
(g10
g3
NtRp43
(dp44
g13
F1.4424254801776537
sg14
I2
sg15
I01
sg16
I9
sg17
I18
sbs(I10
I7
tp45
g1
(g10
g3
NtRp46
(dp47
g13
F1.199750542487207
sg14
I10
sg15
I01
sg16
I7
sg17
I27
sbs(I3
I10
tp48
g1
(g10
g3
NtRp49
(dp50
g13
F2.8120681302314066
sg14
I3
sg15
I01
sg16
I10
sg17
I21
sbs(I1
I5
tp51
g1
(g10
g3
NtRp52
(dp53
g13
F-4.502565626963138
sg14
I1
sg15
I01
sg16
I5
sg17
I1
sbs(I2
I13
tp54
g1
(g10
g3
NtRp55
(dp56
g13
F1
sg14
I2
sg15
I01
sg16
I13
sg17
I63
sbs(I3
I6
tp57
g1
(g10
g3
NtRp58
(dp59
g13
F6.4289345875188832
sg14
I3
sg15
I01
sg16
I6
sg17
I7
sbs(I1
I10
tp60
g1
(g10
g3
NtRp61
(dp62
g13
F1.5154410772999174
sg14
I1
sg15
I01
sg16
I10
sg17
I23
sbs(I10
I9
tp63
g1
(g10
g3
NtRp64
(dp65
g13
F0.23441269589577174
sg14
I10
sg15
I01
sg16
I9
sg17
I30
sbs(I2
I6
tp66
g1
(g10
g3
NtRp67
(dp68
g13
F1.0750145360597867
sg14
I2
sg15
I00
sg16
I6
sg17
I6
sbs(I4
I5
tp69
g1
(g10
g3
NtRp70
(dp71
g13
F-0.33346516215057487
sg14
I4
sg15
I01
sg16
I5
sg17
I4
sbs(I11
I9
tp72
g1
(g10
g3
NtRp73
(dp74
g13
F-0.0534349652189956
sg14
I11
sg15
I01
sg16
I9
sg17
I29
sbs(I3
I9
tp75
g1
(g10
g3
NtRp76
(dp77
g13
F0.7992667058550138
sg14
I3
sg15
I01
sg16
I9
sg17
I19
sbs(I1
I9
tp78
g1
(g10
g3
NtRp79
(dp80
g13
F0.69755059966745214
sg14
I1
sg15
I01
sg16
I9
sg17
I17
sbs(I3
I5
tp81
g1
(g10
g3
NtRp82
(dp83
g13
F-2.8944638865662489
sg14
I3
sg15
I01
sg16
I5
sg17
I3
sbs(I2
I7
tp84
g1
(g10
g3
NtRp85
(dp86
g13
F-0.97471322736996768
sg14
I2
sg15
I01
sg16
I7
sg17
I10
sbs(I4
I6
tp87
g1
(g10
g3
NtRp88
(dp89
g13
F-2.3100776954011528
sg14
I4
sg15
I01
sg16
I6
sg17
I8
sbs(I2
I11
tp90
g1
(g10
g3
NtRp91
(dp92
g13
F0.11465788126962639
sg14
I2
sg15
I01
sg16
I11
sg17
I46
sbs(I13
I5
tp93
g1
(g10
g3
NtRp94
(dp95
g13
F0.034291812697895746
sg14
I13
sg15
I01
sg16
I5
sg17
I55
sbs(I3
I8
tp96
g1
(g10
g3
NtRp97
(dp98
g13
F3.3816346288889036
sg14
I3
sg15
I01
sg16
I8
sg17
I15
sbs(I1
I8
tp99
g1
(g10
g3
NtRp100
(dp101
g13
F1.2195302823240652
sg14
I1
sg15
I01
sg16
I8
sg17
I13
sbs(I1
I7
tp102
g1
(g10
g3
NtRp103
(dp104
g13
F-2.7171246336900672
sg14
I1
sg15
I01
sg16
I7
sg17
I9
sbs(I11
I6
tp105
g1
(g10
g3
NtRp106
(dp107
g13
F1.3863181616768321
sg14
I11
sg15
I01
sg16
I6
sg17
I35
sbssS'_input_nodes'
p108
I4
sS'_output_nodes'
p109
I5
sS'_node_gene_type'
p110
cneat.genome
NodeGene
p111
sS'_FFChromosome__node_order'
p112
(lp113
I11
aI13
aI12
aI10
asS'_conn_gene_type'
p114
g10
sS'fitness'
p115
F0.51282051282051277
sS'parent2_id'
p116
I1476
sS'_id'
p117
I1554
sS'parent1_id'
p118
I1476
sS'_node_genes'
p119
(lp120
g1
(g111
g3
NtRp121
(dp122
S'_bias'
p123
I0
sS'_type'
p124
S'INPUT'
p125
sg117
I1
sS'_response'
p126
F4.9242730000000003
sS'_activation_type'
p127
Nsbag1
(g111
g3
NtRp128
(dp129
g123
I0
sg124
g125
sg117
I2
sg126
F4.9242730000000003
sg127
Nsbag1
(g111
g3
NtRp130
(dp131
g123
I0
sg124
g125
sg117
I3
sg126
F4.9242730000000003
sg127
Nsbag1
(g111
g3
NtRp132
(dp133
g123
I0
sg124
g125
sg117
I4
sg126
F4.9242730000000003
sg127
Nsbag1
(g111
g3
NtRp134
(dp135
g123
F-0.5521503504911095
sg124
S'OUTPUT'
p136
sg117
I5
sg126
F4.9242730000000003
sg127
S'tanh'
p137
sbag1
(g111
g3
NtRp138
(dp139
g123
F0.54056676393557679
sg124
g136
sg117
I6
sg126
F5.2379967401327372
sg127
g137
sbag1
(g111
g3
NtRp140
(dp141
g123
F-0.16389663648179731
sg124
g136
sg117
I7
sg126
F4.9242730000000003
sg127
g137
sbag1
(g111
g3
NtRp142
(dp143
g123
F-0.64574697697268357
sg124
g136
sg117
I8
sg126
F4.9242730000000003
sg127
g137
sbag1
(g111
g3
NtRp144
(dp145
g123
I0
sg124
g136
sg117
I9
sg126
F4.9242730000000003
sg127
g137
sbag1
(g111
g3
NtRp146
(dp147
g123
I0
sg124
S'HIDDEN'
p148
sg117
I10
sg126
F4.9242730000000003
sg127
g137
sbag1
(g111
g3
NtRp149
(dp150
g123
I0
sg124
g148
sg117
I11
sg126
F4.9242730000000003
sg127
g137
sbag1
(g111
g3
NtRp151
(dp152
g123
I0
sg124
g148
sg117
I12
sg126
F5.5120178625820557
sg127
g137
sbag1
(g111
g3
NtRp153
(dp154
g123
F0.28175020019451963
sg124
g148
sg117
I13
sg126
F4.9242730000000003
sg127
g137
sbasb.