ccopy_reg
_reconstructor
p1
(cneat.chromosome
FFChromosome
p2
c__builtin__
object
p3
NtRp4
(dp5
S'species_id'
p6
I34
sS'_connection_genes'
p7
(dp8
(I4
I7
tp9
g1
(cneat.genome
ConnectionGene
p10
g3
NtRp11
(dp12
S'_ConnectionGene__weight'
p13
F2.6891706147190488
sS'_ConnectionGene__in'
p14
I4
sS'_ConnectionGene__enabled'
p15
I01
sS'_ConnectionGene__out'
p16
I7
sS'_ConnectionGene__innov_number'
p17
I12
sbs(I10
I11
tp18
g1
(g10
g3
NtRp19
(dp20
g13
F5.5654427152769657
sg14
I10
sg15
I01
sg16
I11
sg17
I52
sbs(I4
I8
tp21
g1
(g10
g3
NtRp22
(dp23
g13
F-2.6677738021238939
sg14
I4
sg15
I01
sg16
I8
sg17
I16
sbs(I2
I8
tp24
g1
(g10
g3
NtRp25
(dp26
g13
F1.076812610899613
sg14
I2
sg15
I01
sg16
I8
sg17
I14
sbs(I3
I11
tp27
g1
(g10
g3
NtRp28
(dp29
g13
F1.780074918316866
sg14
I3
sg15
I00
sg16
I11
sg17
I32
sbs(I14
I5
tp30
g1
(g10
g3
NtRp31
(dp32
g13
F6.0369096613442963
sg14
I14
sg15
I01
sg16
I5
sg17
I70
sbs(I1
I6
tp33
g1
(g10
g3
NtRp34
(dp35
g13
F-2.6716686618968764
sg14
I1
sg15
I01
sg16
I6
sg17
I5
sbs(I3
I7
tp36
g1
(g10
g3
NtRp37
(dp38
g13
F-9.28988581633112
sg14
I3
sg15
I01
sg16
I7
sg17
I11
sbs(I2
I5
tp39
g1
(g10
g3
NtRp40
(dp41
g13
F-2.6794779918725702
sg14
I2
sg15
I01
sg16
I5
sg17
I2
sbs(I1
I11
tp42
g1
(g10
g3
NtRp43
(dp44
g13
F3.6346699978799388
sg14
I1
sg15
I01
sg16
I11
sg17
I38
sbs(I3
I14
tp45
g1
(g10
g3
NtRp46
(dp47
g13
F-4.0333199238098514
sg14
I3
sg15
I01
sg16
I14
sg17
I69
sbs(I4
I9
tp48
g1
(g10
g3
NtRp49
(dp50
g13
F2.721047781941234
sg14
I4
sg15
I01
sg16
I9
sg17
I20
sbs(I2
I9
tp51
g1
(g10
g3
NtRp52
(dp53
g13
F-4.0458771425206788
sg14
I2
sg15
I01
sg16
I9
sg17
I18
sbs(I11
I5
tp54
g1
(g10
g3
NtRp55
(dp56
g13
F2.7048836006756263
sg14
I11
sg15
I01
sg16
I5
sg17
I33
sbs(I3
I10
tp57
g1
(g10
g3
NtRp58
(dp59
g13
F-3.5991363363331055
sg14
I3
sg15
I01
sg16
I10
sg17
I23
sbs(I1
I5
tp60
g1
(g10
g3
NtRp61
(dp62
g13
F-4.5129893655059989
sg14
I1
sg15
I01
sg16
I5
sg17
I1
sbs(I2
I13
tp63
g1
(g10
g3
NtRp64
(dp65
g13
F-0.12569425824922797
sg14
I2
sg15
I01
sg16
I13
sg17
I55
sbs(I3
I6
tp66
g1
(g10
g3
NtRp67
(dp68
g13
F7.4904230088221384
sg14
I3
sg15
I01
sg16
I6
sg17
I7
sbs(I10
I9
tp69
g1
(g10
g3
NtRp70
(dp71
g13
F12.135532759655948
sg14
I10
sg15
I01
sg16
I9
sg17
I22
sbs(I4
I10
tp72
g1
(g10
g3
NtRp73
(dp74
g13
F0.776511526679599
sg14
I4
sg15
I01
sg16
I10
sg17
I25
sbs(I2
I6
tp75
g1
(g10
g3
NtRp76
(dp77
g13
F-2.8077653487695171
sg14
I2
sg15
I00
sg16
I6
sg17
I6
sbs(I4
I5
tp78
g1
(g10
g3
NtRp79
(dp80
g13
F2.9374074614349053
sg14
I4
sg15
I01
sg16
I5
sg17
I4
sbs(I13
I6
tp81
g1
(g10
g3
NtRp82
(dp83
g13
F-3.2880075508214728
sg14
I13
sg15
I01
sg16
I6
sg17
I56
sbs(I3
I9
tp84
g1
(g10
g3
NtRp85
(dp86
g13
F-4.8726231878273962
sg14
I3
sg15
I00
sg16
I9
sg17
I19
sbs(I1
I9
tp87
g1
(g10
g3
NtRp88
(dp89
g13
F-1.8098196465551142
sg14
I1
sg15
I01
sg16
I9
sg17
I17
sbs(I12
I11
tp90
g1
(g10
g3
NtRp91
(dp92
g13
F-7.1327854223362825
sg14
I12
sg15
I01
sg16
I11
sg17
I57
sbs(I4
I11
tp93
g1
(g10
g3
NtRp94
(dp95
g13
F-4.2420473008083697
sg14
I4
sg15
I01
sg16
I11
sg17
I35
sbs(I3
I5
tp96
g1
(g10
g3
NtRp97
(dp98
g13
F2.3449347163027787
sg14
I3
sg15
I00
sg16
I5
sg17
I3
sbs(I2
I7
tp99
g1
(g10
g3
NtRp100
(dp101
g13
F-4.094188450334487
sg14
I2
sg15
I01
sg16
I7
sg17
I10
sbs(I3
I12
tp102
g1
(g10
g3
NtRp103
(dp104
g13
F-0.27657837743296465
sg14
I3
sg15
I01
sg16
I12
sg17
I45
sbs(I4
I6
tp105
g1
(g10
g3
NtRp106
(dp107
g13
F-0.43446292404780218
sg14
I4
sg15
I01
sg16
I6
sg17
I8
sbs(I11
I8
tp108
g1
(g10
g3
NtRp109
(dp110
g13
F-0.98470326050490953
sg14
I11
sg15
I01
sg16
I8
sg17
I31
sbs(I3
I8
tp111
g1
(g10
g3
NtRp112
(dp113
g13
F-7.1491151085413485
sg14
I3
sg15
I01
sg16
I8
sg17
I15
sbs(I1
I8
tp114
g1
(g10
g3
NtRp115
(dp116
g13
F3.2621192637402023
sg14
I1
sg15
I01
sg16
I8
sg17
I13
sbs(I1
I7
tp117
g1
(g10
g3
NtRp118
(dp119
g13
F-0.87017730496500412
sg14
I1
sg15
I01
sg16
I7
sg17
I9
sbssS'_input_nodes'
p120
I4
sS'_output_nodes'
p121
I5
sS'_node_gene_type'
p122
cneat.genome
NodeGene
p123
sS'_FFChromosome__node_order'
p124
(lp125
I10
aI12
aI11
aI13
aI14
asS'_conn_gene_type'
p126
g10
sS'fitness'
p127
F0.1210614192081183
sS'parent2_id'
p128
I1810
sS'_id'
p129
I1877
sS'parent1_id'
p130
I1777
sS'_node_genes'
p131
(lp132
g1
(g123
g3
NtRp133
(dp134
S'_bias'
p135
I0
sS'_type'
p136
S'INPUT'
p137
sg129
I1
sS'_response'
p138
F4.9242730000000003
sS'_activation_type'
p139
Nsbag1
(g123
g3
NtRp140
(dp141
g135
I0
sg136
g137
sg129
I2
sg138
F4.9242730000000003
sg139
Nsbag1
(g123
g3
NtRp142
(dp143
g135
I0
sg136
g137
sg129
I3
sg138
F4.9242730000000003
sg139
Nsbag1
(g123
g3
NtRp144
(dp145
g135
I0
sg136
g137
sg129
I4
sg138
F4.9242730000000003
sg139
Nsbag1
(g123
g3
NtRp146
(dp147
g135
F-0.7079619621486638
sg136
S'OUTPUT'
p148
sg129
I5
sg138
F4.9242730000000003
sg139
S'tanh'
p149
sbag1
(g123
g3
NtRp150
(dp151
g135
F0.46261164404341959
sg136
g148
sg129
I6
sg138
F4.2092802410121779
sg139
g149
sbag1
(g123
g3
NtRp152
(dp153
g135
F-0.38186215280158148
sg136
g148
sg129
I7
sg138
F4.657628124344356
sg139
g149
sbag1
(g123
g3
NtRp154
(dp155
g135
F-0.35595869032302135
sg136
g148
sg129
I8
sg138
F4.7871352573269936
sg139
g149
sbag1
(g123
g3
NtRp156
(dp157
g135
F0.58967445302445309
sg136
g148
sg129
I9
sg138
F5.094174258219426
sg139
g149
sbag1
(g123
g3
NtRp158
(dp159
g135
I0
sg136
S'HIDDEN'
p160
sg129
I10
sg138
F4.807409474858753
sg139
g149
sbag1
(g123
g3
NtRp161
(dp162
g135
F-0.42507175969441485
sg136
g160
sg129
I11
sg138
F4.9242730000000003
sg139
g149
sbag1
(g123
g3
NtRp163
(dp164
g135
F-0.025687505451785754
sg136
g160
sg129
I12
sg138
F5.3309624884540456
sg139
g149
sbag1
(g123
g3
NtRp165
(dp166
g135
I0
sg136
g160
sg129
I13
sg138
F5.8929157442169684
sg139
g149
sbag1
(g123
g3
NtRp167
(dp168
g135
I0
sg136
g160
sg129
I14
sg138
F4.9242730000000003
sg139
g149
sbasb.