ccopy_reg
_reconstructor
p1
(cneat.chromosome
FFChromosome
p2
c__builtin__
object
p3
NtRp4
(dp5
S'species_id'
p6
I29
sS'_connection_genes'
p7
(dp8
(I4
I7
tp9
g1
(cneat.genome
ConnectionGene
p10
g3
NtRp11
(dp12
S'_ConnectionGene__weight'
p13
F2.5625776017048918
sS'_ConnectionGene__in'
p14
I4
sS'_ConnectionGene__enabled'
p15
I01
sS'_ConnectionGene__out'
p16
I7
sS'_ConnectionGene__innov_number'
p17
I12
sbs(I4
I8
tp18
g1
(g10
g3
NtRp19
(dp20
g13
F-1.5881549164122162
sg14
I4
sg15
I01
sg16
I8
sg17
I16
sbs(I2
I8
tp21
g1
(g10
g3
NtRp22
(dp23
g13
F0.90779407159283587
sg14
I2
sg15
I01
sg16
I8
sg17
I14
sbs(I4
I6
tp24
g1
(g10
g3
NtRp25
(dp26
g13
F-3.6511086241995514
sg14
I4
sg15
I01
sg16
I6
sg17
I8
sbs(I1
I6
tp27
g1
(g10
g3
NtRp28
(dp29
g13
F-0.059399000474681163
sg14
I1
sg15
I00
sg16
I6
sg17
I5
sbs(I3
I7
tp30
g1
(g10
g3
NtRp31
(dp32
g13
F3.568281347219969
sg14
I3
sg15
I01
sg16
I7
sg17
I11
sbs(I2
I5
tp33
g1
(g10
g3
NtRp34
(dp35
g13
F0.70654026911281775
sg14
I2
sg15
I00
sg16
I5
sg17
I2
sbs(I1
I11
tp36
g1
(g10
g3
NtRp37
(dp38
g13
F0.25266667327940029
sg14
I1
sg15
I01
sg16
I11
sg17
I27
sbs(I11
I10
tp39
g1
(g10
g3
NtRp40
(dp41
g13
F-3.2414568660674106
sg14
I11
sg15
I01
sg16
I10
sg17
I36
sbs(I4
I9
tp42
g1
(g10
g3
NtRp43
(dp44
g13
F-5.8361943713364397
sg14
I4
sg15
I01
sg16
I9
sg17
I20
sbs(I2
I9
tp45
g1
(g10
g3
NtRp46
(dp47
g13
F2.4674678398987031
sg14
I2
sg15
I01
sg16
I9
sg17
I18
sbs(I1
I14
tp48
g1
(g10
g3
NtRp49
(dp50
g13
F3.322312932049595
sg14
I1
sg15
I01
sg16
I14
sg17
I82
sbs(I12
I6
tp51
g1
(g10
g3
NtRp52
(dp53
g13
F1.4252099584491562
sg14
I12
sg15
I01
sg16
I6
sg17
I49
sbs(I1
I5
tp54
g1
(g10
g3
NtRp55
(dp56
g13
F-3.7910030458622019
sg14
I1
sg15
I01
sg16
I5
sg17
I1
sbs(I2
I13
tp57
g1
(g10
g3
NtRp58
(dp59
g13
F0.32526650154082204
sg14
I2
sg15
I01
sg16
I13
sg17
I57
sbs(I13
I7
tp60
g1
(g10
g3
NtRp61
(dp62
g13
F-9.3320836062007686
sg14
I13
sg15
I01
sg16
I7
sg17
I58
sbs(I3
I6
tp63
g1
(g10
g3
NtRp64
(dp65
g13
F5.8305783729758565
sg14
I3
sg15
I01
sg16
I6
sg17
I7
sbs(I1
I10
tp66
g1
(g10
g3
NtRp67
(dp68
g13
F5.9548737185127685
sg14
I1
sg15
I00
sg16
I10
sg17
I21
sbs(I2
I6
tp69
g1
(g10
g3
NtRp70
(dp71
g13
F-0.21572104246686208
sg14
I2
sg15
I01
sg16
I6
sg17
I6
sbs(I4
I5
tp72
g1
(g10
g3
NtRp73
(dp74
g13
F-1.1138656745577951
sg14
I4
sg15
I01
sg16
I5
sg17
I4
sbs(I2
I10
tp75
g1
(g10
g3
NtRp76
(dp77
g13
F0.88673136210979298
sg14
I2
sg15
I01
sg16
I10
sg17
I23
sbs(I3
I9
tp78
g1
(g10
g3
NtRp79
(dp80
g13
F-5.8861896051332581
sg14
I3
sg15
I01
sg16
I9
sg17
I19
sbs(I1
I9
tp81
g1
(g10
g3
NtRp82
(dp83
g13
F3.3073394865125896
sg14
I1
sg15
I01
sg16
I9
sg17
I17
sbs(I13
I10
tp84
g1
(g10
g3
NtRp85
(dp86
g13
F0.46035457787844702
sg14
I13
sg15
I01
sg16
I10
sg17
I101
sbs(I3
I5
tp87
g1
(g10
g3
NtRp88
(dp89
g13
F-4.3470909222719207
sg14
I3
sg15
I01
sg16
I5
sg17
I3
sbs(I2
I7
tp90
g1
(g10
g3
NtRp91
(dp92
g13
F-10.072100024306954
sg14
I2
sg15
I00
sg16
I7
sg17
I10
sbs(I10
I5
tp93
g1
(g10
g3
NtRp94
(dp95
g13
F0.46433315991800161
sg14
I10
sg15
I00
sg16
I5
sg17
I26
sbs(I14
I5
tp96
g1
(g10
g3
NtRp97
(dp98
g13
F-0.40915296078245933
sg14
I14
sg15
I01
sg16
I5
sg17
I65
sbs(I1
I12
tp99
g1
(g10
g3
NtRp100
(dp101
g13
F-3.9656999347781028
sg14
I1
sg15
I01
sg16
I12
sg17
I52
sbs(I13
I14
tp102
g1
(g10
g3
NtRp103
(dp104
g13
F-2.7929168226570278
sg14
I13
sg15
I01
sg16
I14
sg17
I97
sbs(I2
I11
tp105
g1
(g10
g3
NtRp106
(dp107
g13
F1.777985111735656
sg14
I2
sg15
I01
sg16
I11
sg17
I33
sbs(I3
I8
tp108
g1
(g10
g3
NtRp109
(dp110
g13
F-5.2171848787498352
sg14
I3
sg15
I01
sg16
I8
sg17
I15
sbs(I1
I8
tp111
g1
(g10
g3
NtRp112
(dp113
g13
F2.089124457096375
sg14
I1
sg15
I01
sg16
I8
sg17
I13
sbs(I10
I14
tp114
g1
(g10
g3
NtRp115
(dp116
g13
F0.0075904416586455303
sg14
I10
sg15
I01
sg16
I14
sg17
I64
sbs(I1
I7
tp117
g1
(g10
g3
NtRp118
(dp119
g13
F-4.5768011204776053
sg14
I1
sg15
I01
sg16
I7
sg17
I9
sbssS'_input_nodes'
p120
I4
sS'_output_nodes'
p121
I5
sS'_node_gene_type'
p122
cneat.genome
NodeGene
p123
sS'_FFChromosome__node_order'
p124
(lp125
I11
aI13
aI10
aI12
aI14
asS'_conn_gene_type'
p126
g10
sS'fitness'
p127
F0.12604511291451601
sS'parent2_id'
p128
I1882
sS'_id'
p129
I1939
sS'parent1_id'
p130
I1882
sS'_node_genes'
p131
(lp132
g1
(g123
g3
NtRp133
(dp134
S'_bias'
p135
I0
sS'_type'
p136
S'INPUT'
p137
sg129
I1
sS'_response'
p138
F4.9242730000000003
sS'_activation_type'
p139
Nsbag1
(g123
g3
NtRp140
(dp141
g135
I0
sg136
g137
sg129
I2
sg138
F4.9242730000000003
sg139
Nsbag1
(g123
g3
NtRp142
(dp143
g135
I0
sg136
g137
sg129
I3
sg138
F4.9242730000000003
sg139
Nsbag1
(g123
g3
NtRp144
(dp145
g135
I0
sg136
g137
sg129
I4
sg138
F4.9242730000000003
sg139
Nsbag1
(g123
g3
NtRp146
(dp147
g135
F-0.68872730099708657
sg136
S'OUTPUT'
p148
sg129
I5
sg138
F4.328572086958296
sg139
S'tanh'
p149
sbag1
(g123
g3
NtRp150
(dp151
g135
F-0.60165104183534446
sg136
g148
sg129
I6
sg138
F5.2007211039188999
sg139
g149
sbag1
(g123
g3
NtRp152
(dp153
g135
F0.0039767837915082732
sg136
g148
sg129
I7
sg138
F4.622038816465448
sg139
g149
sbag1
(g123
g3
NtRp154
(dp155
g135
I0
sg136
g148
sg129
I8
sg138
F4.9242730000000003
sg139
g149
sbag1
(g123
g3
NtRp156
(dp157
g135
F0.88717440781599555
sg136
g148
sg129
I9
sg138
F5.3082182938047424
sg139
g149
sbag1
(g123
g3
NtRp158
(dp159
g135
F-0.52604939047480792
sg136
S'HIDDEN'
p160
sg129
I10
sg138
F4.7470648683474508
sg139
g149
sbag1
(g123
g3
NtRp161
(dp162
g135
F0.2150448489456748
sg136
g160
sg129
I11
sg138
F4.9242730000000003
sg139
g149
sbag1
(g123
g3
NtRp163
(dp164
g135
I0
sg136
g160
sg129
I12
sg138
F4.680230393344873
sg139
g149
sbag1
(g123
g3
NtRp165
(dp166
g135
F0.9281534316435518
sg136
g160
sg129
I13
sg138
F2.9510202909146308
sg139
g149
sbag1
(g123
g3
NtRp167
(dp168
g135
I0
sg136
g160
sg129
I14
sg138
F4.9242730000000003
sg139
g149
sbasb.