ccopy_reg
_reconstructor
p1
(cneat.chromosome
FFChromosome
p2
c__builtin__
object
p3
NtRp4
(dp5
S'species_id'
p6
I50
sS'_connection_genes'
p7
(dp8
(I4
I7
tp9
g1
(cneat.genome
ConnectionGene
p10
g3
NtRp11
(dp12
S'_ConnectionGene__weight'
p13
F-2.3917307669685481
sS'_ConnectionGene__in'
p14
I4
sS'_ConnectionGene__enabled'
p15
I01
sS'_ConnectionGene__out'
p16
I7
sS'_ConnectionGene__innov_number'
p17
I12
sbs(I4
I8
tp18
g1
(g10
g3
NtRp19
(dp20
g13
F2.4671716693725658
sg14
I4
sg15
I01
sg16
I8
sg17
I16
sbs(I2
I8
tp21
g1
(g10
g3
NtRp22
(dp23
g13
F1.5836688868779518
sg14
I2
sg15
I01
sg16
I8
sg17
I14
sbs(I1
I6
tp24
g1
(g10
g3
NtRp25
(dp26
g13
F-0.21298696467552558
sg14
I1
sg15
I01
sg16
I6
sg17
I5
sbs(I2
I12
tp27
g1
(g10
g3
NtRp28
(dp29
g13
F1.3819316660704895
sg14
I2
sg15
I01
sg16
I12
sg17
I45
sbs(I3
I7
tp30
g1
(g10
g3
NtRp31
(dp32
g13
F-2.3465679919773774
sg14
I3
sg15
I01
sg16
I7
sg17
I11
sbs(I2
I5
tp33
g1
(g10
g3
NtRp34
(dp35
g13
F-6.3903359740226326
sg14
I2
sg15
I01
sg16
I5
sg17
I2
sbs(I1
I11
tp36
g1
(g10
g3
NtRp37
(dp38
g13
F4.6390371886331518
sg14
I1
sg15
I01
sg16
I11
sg17
I38
sbs(I10
I8
tp39
g1
(g10
g3
NtRp40
(dp41
g13
F-5.43216357012051
sg14
I10
sg15
I01
sg16
I8
sg17
I26
sbs(I4
I9
tp42
g1
(g10
g3
NtRp43
(dp44
g13
F-2.3361308286015232
sg14
I4
sg15
I01
sg16
I9
sg17
I20
sbs(I2
I9
tp45
g1
(g10
g3
NtRp46
(dp47
g13
F8.7811631438584943
sg14
I2
sg15
I01
sg16
I9
sg17
I18
sbs(I10
I7
tp48
g1
(g10
g3
NtRp49
(dp50
g13
F1.6599614296853766
sg14
I10
sg15
I01
sg16
I7
sg17
I28
sbs(I3
I10
tp51
g1
(g10
g3
NtRp52
(dp53
g13
F0.49347214398077299
sg14
I3
sg15
I01
sg16
I10
sg17
I21
sbs(I12
I6
tp54
g1
(g10
g3
NtRp55
(dp56
g13
F-11.102696254537372
sg14
I12
sg15
I01
sg16
I6
sg17
I41
sbs(I1
I5
tp57
g1
(g10
g3
NtRp58
(dp59
g13
F-2.8337399319246561
sg14
I1
sg15
I01
sg16
I5
sg17
I1
sbs(I3
I6
tp60
g1
(g10
g3
NtRp61
(dp62
g13
F20.135621941615319
sg14
I3
sg15
I01
sg16
I6
sg17
I7
sbs(I10
I9
tp63
g1
(g10
g3
NtRp64
(dp65
g13
F-2.5289868346040496
sg14
I10
sg15
I01
sg16
I9
sg17
I24
sbs(I2
I6
tp66
g1
(g10
g3
NtRp67
(dp68
g13
F-11.742066447282633
sg14
I2
sg15
I00
sg16
I6
sg17
I6
sbs(I4
I5
tp69
g1
(g10
g3
NtRp70
(dp71
g13
F2.4915809861763307
sg14
I4
sg15
I01
sg16
I5
sg17
I4
sbs(I1
I13
tp72
g1
(g10
g3
NtRp73
(dp74
g13
F3.8706300897646644
sg14
I1
sg15
I01
sg16
I13
sg17
I55
sbs(I11
I9
tp75
g1
(g10
g3
NtRp76
(dp77
g13
F11.838834719830905
sg14
I11
sg15
I01
sg16
I9
sg17
I39
sbs(I4
I14
tp78
g1
(g10
g3
NtRp79
(dp80
g13
F2.2010017983067076
sg14
I4
sg15
I01
sg16
I14
sg17
I64
sbs(I3
I9
tp81
g1
(g10
g3
NtRp82
(dp83
g13
F-3.7356461365452871
sg14
I3
sg15
I01
sg16
I9
sg17
I19
sbs(I1
I9
tp84
g1
(g10
g3
NtRp85
(dp86
g13
F-0.062789902851761781
sg14
I1
sg15
I00
sg16
I9
sg17
I17
sbs(I12
I11
tp87
g1
(g10
g3
NtRp88
(dp89
g13
F-2.0456636929307987
sg14
I12
sg15
I01
sg16
I11
sg17
I58
sbs(I3
I5
tp90
g1
(g10
g3
NtRp91
(dp92
g13
F-6.1009756360455736
sg14
I3
sg15
I01
sg16
I5
sg17
I3
sbs(I2
I7
tp93
g1
(g10
g3
NtRp94
(dp95
g13
F-1.9453271573920914
sg14
I2
sg15
I01
sg16
I7
sg17
I10
sbs(I4
I6
tp96
g1
(g10
g3
NtRp97
(dp98
g13
F-5.5648764838045937
sg14
I4
sg15
I01
sg16
I6
sg17
I8
sbs(I14
I7
tp99
g1
(g10
g3
NtRp100
(dp101
g13
F-1.2183936472826011
sg14
I14
sg15
I01
sg16
I7
sg17
I81
sbs(I3
I8
tp102
g1
(g10
g3
NtRp103
(dp104
g13
F-1.3073944773759338
sg14
I3
sg15
I00
sg16
I8
sg17
I15
sbs(I1
I8
tp105
g1
(g10
g3
NtRp106
(dp107
g13
F2.6304024107650545
sg14
I1
sg15
I01
sg16
I8
sg17
I13
sbs(I1
I7
tp108
g1
(g10
g3
NtRp109
(dp110
g13
F-6.6709639762573838
sg14
I1
sg15
I01
sg16
I7
sg17
I9
sbs(I13
I9
tp111
g1
(g10
g3
NtRp112
(dp113
g13
F-3.1465025591824727
sg14
I13
sg15
I01
sg16
I9
sg17
I54
sbssS'_input_nodes'
p114
I4
sS'_output_nodes'
p115
I5
sS'_node_gene_type'
p116
cneat.genome
NodeGene
p117
sS'_FFChromosome__node_order'
p118
(lp119
I10
aI12
aI11
aI13
aI14
asS'_conn_gene_type'
p120
g10
sS'fitness'
p121
F0.12579772423079194
sS'parent2_id'
p122
I2737
sS'_id'
p123
I2851
sS'parent1_id'
p124
I2737
sS'_node_genes'
p125
(lp126
g1
(g117
g3
NtRp127
(dp128
S'_bias'
p129
I0
sS'_type'
p130
S'INPUT'
p131
sg123
I1
sS'_response'
p132
F4.9242730000000003
sS'_activation_type'
p133
Nsbag1
(g117
g3
NtRp134
(dp135
g129
I0
sg130
g131
sg123
I2
sg132
F4.9242730000000003
sg133
Nsbag1
(g117
g3
NtRp136
(dp137
g129
I0
sg130
g131
sg123
I3
sg132
F4.9242730000000003
sg133
Nsbag1
(g117
g3
NtRp138
(dp139
g129
I0
sg130
g131
sg123
I4
sg132
F4.9242730000000003
sg133
Nsbag1
(g117
g3
NtRp140
(dp141
g129
F0.54720507509498617
sg130
S'OUTPUT'
p142
sg123
I5
sg132
F6.4584910097049182
sg133
S'tanh'
p143
sbag1
(g117
g3
NtRp144
(dp145
g129
F0.018165606580522714
sg130
g142
sg123
I6
sg132
F6.2738464378477286
sg133
g143
sbag1
(g117
g3
NtRp146
(dp147
g129
F-0.61396364411597681
sg130
g142
sg123
I7
sg132
F4.3450166916530257
sg133
g143
sbag1
(g117
g3
NtRp148
(dp149
g129
F1.2587030201660721
sg130
g142
sg123
I8
sg132
F5.4516590834839338
sg133
g143
sbag1
(g117
g3
NtRp150
(dp151
g129
F-0.99869729856736411
sg130
g142
sg123
I9
sg132
F5.7006881026057004
sg133
g143
sbag1
(g117
g3
NtRp152
(dp153
g129
F0.21339443691292967
sg130
S'HIDDEN'
p154
sg123
I10
sg132
F5.2963359348960735
sg133
g143
sbag1
(g117
g3
NtRp155
(dp156
g129
F0.57525642876162275
sg130
g154
sg123
I11
sg132
F4.9122001083972169
sg133
g143
sbag1
(g117
g3
NtRp157
(dp158
g129
F0.19468294112234819
sg130
g154
sg123
I12
sg132
F3.9272603339162653
sg133
g143
sbag1
(g117
g3
NtRp159
(dp160
g129
I0
sg130
g154
sg123
I13
sg132
F4.9242730000000003
sg133
g143
sbag1
(g117
g3
NtRp161
(dp162
g129
I0
sg130
g154
sg123
I14
sg132
F4.9242730000000003
sg133
g143
sbasb.