ccopy_reg
_reconstructor
p1
(cneat.chromosome
FFChromosome
p2
c__builtin__
object
p3
NtRp4
(dp5
S'species_id'
p6
I1
sS'_connection_genes'
p7
(dp8
(I4
I7
tp9
g1
(cneat.genome
ConnectionGene
p10
g3
NtRp11
(dp12
S'_ConnectionGene__weight'
p13
F-3.1888288908234346
sS'_ConnectionGene__in'
p14
I4
sS'_ConnectionGene__enabled'
p15
I01
sS'_ConnectionGene__out'
p16
I7
sS'_ConnectionGene__innov_number'
p17
I12
sbs(I4
I8
tp18
g1
(g10
g3
NtRp19
(dp20
g13
F-1.931794308296338
sg14
I4
sg15
I01
sg16
I8
sg17
I16
sbs(I2
I8
tp21
g1
(g10
g3
NtRp22
(dp23
g13
F-0.09765814643023793
sg14
I2
sg15
I01
sg16
I8
sg17
I14
sbs(I10
I6
tp24
g1
(g10
g3
NtRp25
(dp26
g13
F0.42573523843497607
sg14
I10
sg15
I01
sg16
I6
sg17
I24
sbs(I1
I6
tp27
g1
(g10
g3
NtRp28
(dp29
g13
F-0.83405274002885443
sg14
I1
sg15
I01
sg16
I6
sg17
I5
sbs(I3
I7
tp30
g1
(g10
g3
NtRp31
(dp32
g13
F0.24796895306628025
sg14
I3
sg15
I01
sg16
I7
sg17
I11
sbs(I2
I5
tp33
g1
(g10
g3
NtRp34
(dp35
g13
F-0.042916133092358089
sg14
I2
sg15
I01
sg16
I5
sg17
I2
sbs(I4
I9
tp36
g1
(g10
g3
NtRp37
(dp38
g13
F0.27122997080266981
sg14
I4
sg15
I01
sg16
I9
sg17
I20
sbs(I2
I9
tp39
g1
(g10
g3
NtRp40
(dp41
g13
F1.6255691975764979
sg14
I2
sg15
I01
sg16
I9
sg17
I18
sbs(I1
I5
tp42
g1
(g10
g3
NtRp43
(dp44
g13
F-0.46325944275412473
sg14
I1
sg15
I01
sg16
I5
sg17
I1
sbs(I3
I6
tp45
g1
(g10
g3
NtRp46
(dp47
g13
F7.9997585667810931
sg14
I3
sg15
I01
sg16
I6
sg17
I7
sbs(I2
I6
tp48
g1
(g10
g3
NtRp49
(dp50
g13
F0.42573523843497607
sg14
I2
sg15
I00
sg16
I6
sg17
I6
sbs(I4
I5
tp51
g1
(g10
g3
NtRp52
(dp53
g13
F-0.30815643000475551
sg14
I4
sg15
I01
sg16
I5
sg17
I4
sbs(I2
I10
tp54
g1
(g10
g3
NtRp55
(dp56
g13
F1
sg14
I2
sg15
I01
sg16
I10
sg17
I26
sbs(I3
I9
tp57
g1
(g10
g3
NtRp58
(dp59
g13
F1.3085374180124765
sg14
I3
sg15
I01
sg16
I9
sg17
I19
sbs(I1
I9
tp60
g1
(g10
g3
NtRp61
(dp62
g13
F-0.35137552055211507
sg14
I1
sg15
I01
sg16
I9
sg17
I17
sbs(I3
I5
tp63
g1
(g10
g3
NtRp64
(dp65
g13
F-1.1049683558735508
sg14
I3
sg15
I01
sg16
I5
sg17
I3
sbs(I2
I7
tp66
g1
(g10
g3
NtRp67
(dp68
g13
F-0.53027630873684772
sg14
I2
sg15
I01
sg16
I7
sg17
I10
sbs(I4
I6
tp69
g1
(g10
g3
NtRp70
(dp71
g13
F-0.30967762308426638
sg14
I4
sg15
I01
sg16
I6
sg17
I8
sbs(I3
I8
tp72
g1
(g10
g3
NtRp73
(dp74
g13
F-0.20635039095419139
sg14
I3
sg15
I01
sg16
I8
sg17
I15
sbs(I1
I8
tp75
g1
(g10
g3
NtRp76
(dp77
g13
F2.3260507737277667
sg14
I1
sg15
I01
sg16
I8
sg17
I13
sbs(I1
I7
tp78
g1
(g10
g3
NtRp79
(dp80
g13
F0.92799792897976841
sg14
I1
sg15
I01
sg16
I7
sg17
I9
sbssS'_input_nodes'
p81
I4
sS'_output_nodes'
p82
I5
sS'_node_gene_type'
p83
cneat.genome
NodeGene
p84
sS'_FFChromosome__node_order'
p85
(lp86
I10
asS'_conn_gene_type'
p87
g10
sS'fitness'
p88
F0.25641025641025639
sS'parent2_id'
p89
I411
sS'_id'
p90
I529
sS'parent1_id'
p91
I402
sS'_node_genes'
p92
(lp93
g1
(g84
g3
NtRp94
(dp95
S'_bias'
p96
I0
sS'_type'
p97
S'INPUT'
p98
sg90
I1
sS'_response'
p99
F4.9242730000000003
sS'_activation_type'
p100
Nsbag1
(g84
g3
NtRp101
(dp102
g96
I0
sg97
g98
sg90
I2
sg99
F4.9242730000000003
sg100
Nsbag1
(g84
g3
NtRp103
(dp104
g96
I0
sg97
g98
sg90
I3
sg99
F4.9242730000000003
sg100
Nsbag1
(g84
g3
NtRp105
(dp106
g96
I0
sg97
g98
sg90
I4
sg99
F4.9242730000000003
sg100
Nsbag1
(g84
g3
NtRp107
(dp108
g96
I0
sg97
S'OUTPUT'
p109
sg90
I5
sg99
F4.9242730000000003
sg100
S'tanh'
p110
sbag1
(g84
g3
NtRp111
(dp112
g96
F0.54056676393557679
sg97
g109
sg90
I6
sg99
F4.9242730000000003
sg100
g110
sbag1
(g84
g3
NtRp113
(dp114
g96
I0
sg97
g109
sg90
I7
sg99
F4.9242730000000003
sg100
g110
sbag1
(g84
g3
NtRp115
(dp116
g96
F-0.64574697697268357
sg97
g109
sg90
I8
sg99
F4.9242730000000003
sg100
g110
sbag1
(g84
g3
NtRp117
(dp118
g96
I0
sg97
g109
sg90
I9
sg99
F4.9242730000000003
sg100
g110
sbag1
(g84
g3
NtRp119
(dp120
g96
I0
sg97
S'HIDDEN'
p121
sg90
I10
sg99
F4.9242730000000003
sg100
g110
sbasb.