ccopy_reg
_reconstructor
p1
(cneat.chromosome
FFChromosome
p2
c__builtin__
object
p3
NtRp4
(dp5
S'species_id'
p6
I56
sS'_connection_genes'
p7
(dp8
(I4
I7
tp9
g1
(cneat.genome
ConnectionGene
p10
g3
NtRp11
(dp12
S'_ConnectionGene__weight'
p13
F1.5570973738579721
sS'_ConnectionGene__in'
p14
I4
sS'_ConnectionGene__enabled'
p15
I01
sS'_ConnectionGene__out'
p16
I7
sS'_ConnectionGene__innov_number'
p17
I12
sbs(I4
I8
tp18
g1
(g10
g3
NtRp19
(dp20
g13
F-2.7248662997315254
sg14
I4
sg15
I01
sg16
I8
sg17
I16
sbs(I2
I8
tp21
g1
(g10
g3
NtRp22
(dp23
g13
F0.87804497185774832
sg14
I2
sg15
I01
sg16
I8
sg17
I14
sbs(I4
I12
tp24
g1
(g10
g3
NtRp25
(dp26
g13
F-0.14571241917877198
sg14
I4
sg15
I01
sg16
I12
sg17
I40
sbs(I1
I6
tp27
g1
(g10
g3
NtRp28
(dp29
g13
F-1.5340168011660453
sg14
I1
sg15
I01
sg16
I6
sg17
I5
sbs(I3
I7
tp30
g1
(g10
g3
NtRp31
(dp32
g13
F-4.0590783552264647
sg14
I3
sg15
I00
sg16
I7
sg17
I11
sbs(I2
I5
tp33
g1
(g10
g3
NtRp34
(dp35
g13
F-0.035604042065294564
sg14
I2
sg15
I00
sg16
I5
sg17
I2
sbs(I12
I9
tp36
g1
(g10
g3
NtRp37
(dp38
g13
F3.4199208547144555
sg14
I12
sg15
I01
sg16
I9
sg17
I37
sbs(I4
I9
tp39
g1
(g10
g3
NtRp40
(dp41
g13
F1.9501236796571784
sg14
I4
sg15
I00
sg16
I9
sg17
I20
sbs(I2
I9
tp42
g1
(g10
g3
NtRp43
(dp44
g13
F1.4424254801776537
sg14
I2
sg15
I01
sg16
I9
sg17
I18
sbs(I10
I7
tp45
g1
(g10
g3
NtRp46
(dp47
g13
F1.199750542487207
sg14
I10
sg15
I01
sg16
I7
sg17
I27
sbs(I3
I10
tp48
g1
(g10
g3
NtRp49
(dp50
g13
F2.8120681302314066
sg14
I3
sg15
I01
sg16
I10
sg17
I21
sbs(I4
I13
tp51
g1
(g10
g3
NtRp52
(dp53
g13
F-1.0460127965250079
sg14
I4
sg15
I01
sg16
I13
sg17
I71
sbs(I1
I5
tp54
g1
(g10
g3
NtRp55
(dp56
g13
F-4.502565626963138
sg14
I1
sg15
I01
sg16
I5
sg17
I1
sbs(I2
I13
tp57
g1
(g10
g3
NtRp58
(dp59
g13
F1
sg14
I2
sg15
I01
sg16
I13
sg17
I63
sbs(I3
I6
tp60
g1
(g10
g3
NtRp61
(dp62
g13
F6.4289345875188832
sg14
I3
sg15
I01
sg16
I6
sg17
I7
sbs(I1
I10
tp63
g1
(g10
g3
NtRp64
(dp65
g13
F1.5154410772999174
sg14
I1
sg15
I01
sg16
I10
sg17
I23
sbs(I10
I9
tp66
g1
(g10
g3
NtRp67
(dp68
g13
F0.23441269589577174
sg14
I10
sg15
I01
sg16
I9
sg17
I30
sbs(I2
I6
tp69
g1
(g10
g3
NtRp70
(dp71
g13
F1.0750145360597867
sg14
I2
sg15
I00
sg16
I6
sg17
I6
sbs(I4
I5
tp72
g1
(g10
g3
NtRp73
(dp74
g13
F-0.33346516215057487
sg14
I4
sg15
I01
sg16
I5
sg17
I4
sbs(I11
I9
tp75
g1
(g10
g3
NtRp76
(dp77
g13
F-0.0534349652189956
sg14
I11
sg15
I01
sg16
I9
sg17
I29
sbs(I3
I9
tp78
g1
(g10
g3
NtRp79
(dp80
g13
F0.7992667058550138
sg14
I3
sg15
I01
sg16
I9
sg17
I19
sbs(I1
I9
tp81
g1
(g10
g3
NtRp82
(dp83
g13
F0.69755059966745214
sg14
I1
sg15
I01
sg16
I9
sg17
I17
sbs(I3
I5
tp84
g1
(g10
g3
NtRp85
(dp86
g13
F-2.8944638865662489
sg14
I3
sg15
I01
sg16
I5
sg17
I3
sbs(I2
I7
tp87
g1
(g10
g3
NtRp88
(dp89
g13
F-0.97471322736996768
sg14
I2
sg15
I01
sg16
I7
sg17
I10
sbs(I4
I6
tp90
g1
(g10
g3
NtRp91
(dp92
g13
F-2.3100776954011528
sg14
I4
sg15
I01
sg16
I6
sg17
I8
sbs(I2
I11
tp93
g1
(g10
g3
NtRp94
(dp95
g13
F0.11465788126962639
sg14
I2
sg15
I01
sg16
I11
sg17
I46
sbs(I13
I5
tp96
g1
(g10
g3
NtRp97
(dp98
g13
F0.034291812697895746
sg14
I13
sg15
I01
sg16
I5
sg17
I55
sbs(I3
I8
tp99
g1
(g10
g3
NtRp100
(dp101
g13
F3.3816346288889036
sg14
I3
sg15
I01
sg16
I8
sg17
I15
sbs(I1
I8
tp102
g1
(g10
g3
NtRp103
(dp104
g13
F1.2195302823240652
sg14
I1
sg15
I01
sg16
I8
sg17
I13
sbs(I1
I7
tp105
g1
(g10
g3
NtRp106
(dp107
g13
F-2.7171246336900672
sg14
I1
sg15
I01
sg16
I7
sg17
I9
sbs(I11
I6
tp108
g1
(g10
g3
NtRp109
(dp110
g13
F1.3863181616768321
sg14
I11
sg15
I01
sg16
I6
sg17
I35
sbssS'_input_nodes'
p111
I4
sS'_output_nodes'
p112
I5
sS'_node_gene_type'
p113
cneat.genome
NodeGene
p114
sS'_FFChromosome__node_order'
p115
(lp116
I11
aI13
aI12
aI10
asS'_conn_gene_type'
p117
g10
sS'fitness'
p118
F0.51282051282051277
sS'parent2_id'
p119
I1554
sS'_id'
p120
I1937
sS'parent1_id'
p121
I1554
sS'_node_genes'
p122
(lp123
g1
(g114
g3
NtRp124
(dp125
S'_bias'
p126
I0
sS'_type'
p127
S'INPUT'
p128
sg120
I1
sS'_response'
p129
F4.9242730000000003
sS'_activation_type'
p130
Nsbag1
(g114
g3
NtRp131
(dp132
g126
I0
sg127
g128
sg120
I2
sg129
F4.9242730000000003
sg130
Nsbag1
(g114
g3
NtRp133
(dp134
g126
I0
sg127
g128
sg120
I3
sg129
F4.9242730000000003
sg130
Nsbag1
(g114
g3
NtRp135
(dp136
g126
I0
sg127
g128
sg120
I4
sg129
F4.9242730000000003
sg130
Nsbag1
(g114
g3
NtRp137
(dp138
g126
F-0.5521503504911095
sg127
S'OUTPUT'
p139
sg120
I5
sg129
F4.9242730000000003
sg130
S'tanh'
p140
sbag1
(g114
g3
NtRp141
(dp142
g126
F0.54056676393557679
sg127
g139
sg120
I6
sg129
F5.2379967401327372
sg130
g140
sbag1
(g114
g3
NtRp143
(dp144
g126
F-0.16389663648179731
sg127
g139
sg120
I7
sg129
F4.9242730000000003
sg130
g140
sbag1
(g114
g3
NtRp145
(dp146
g126
F-0.64574697697268357
sg127
g139
sg120
I8
sg129
F4.9242730000000003
sg130
g140
sbag1
(g114
g3
NtRp147
(dp148
g126
I0
sg127
g139
sg120
I9
sg129
F4.9242730000000003
sg130
g140
sbag1
(g114
g3
NtRp149
(dp150
g126
I0
sg127
S'HIDDEN'
p151
sg120
I10
sg129
F4.9242730000000003
sg130
g140
sbag1
(g114
g3
NtRp152
(dp153
g126
I0
sg127
g151
sg120
I11
sg129
F4.9242730000000003
sg130
g140
sbag1
(g114
g3
NtRp154
(dp155
g126
I0
sg127
g151
sg120
I12
sg129
F5.5120178625820557
sg130
g140
sbag1
(g114
g3
NtRp156
(dp157
g126
F0.28175020019451963
sg127
g151
sg120
I13
sg129
F4.9242730000000003
sg130
g140
sbasb.