ccopy_reg
_reconstructor
p1
(cneat.chromosome
FFChromosome
p2
c__builtin__
object
p3
NtRp4
(dp5
S'species_id'
p6
I50
sS'_connection_genes'
p7
(dp8
(I4
I7
tp9
g1
(cneat.genome
ConnectionGene
p10
g3
NtRp11
(dp12
S'_ConnectionGene__weight'
p13
F-3.5932063513136243
sS'_ConnectionGene__in'
p14
I4
sS'_ConnectionGene__enabled'
p15
I00
sS'_ConnectionGene__out'
p16
I7
sS'_ConnectionGene__innov_number'
p17
I12
sbs(I4
I8
tp18
g1
(g10
g3
NtRp19
(dp20
g13
F2.4671716693725658
sg14
I4
sg15
I01
sg16
I8
sg17
I16
sbs(I2
I8
tp21
g1
(g10
g3
NtRp22
(dp23
g13
F1.5836688868779518
sg14
I2
sg15
I01
sg16
I8
sg17
I14
sbs(I10
I6
tp24
g1
(g10
g3
NtRp25
(dp26
g13
F2.0432156853647374
sg14
I10
sg15
I01
sg16
I6
sg17
I27
sbs(I1
I6
tp27
g1
(g10
g3
NtRp28
(dp29
g13
F-0.21298696467552558
sg14
I1
sg15
I01
sg16
I6
sg17
I5
sbs(I2
I12
tp30
g1
(g10
g3
NtRp31
(dp32
g13
F1.3819316660704895
sg14
I2
sg15
I01
sg16
I12
sg17
I45
sbs(I3
I7
tp33
g1
(g10
g3
NtRp34
(dp35
g13
F-2.3465679919773774
sg14
I3
sg15
I01
sg16
I7
sg17
I11
sbs(I2
I5
tp36
g1
(g10
g3
NtRp37
(dp38
g13
F-6.3903359740226326
sg14
I2
sg15
I01
sg16
I5
sg17
I2
sbs(I1
I11
tp39
g1
(g10
g3
NtRp40
(dp41
g13
F4.6390371886331518
sg14
I1
sg15
I01
sg16
I11
sg17
I38
sbs(I10
I8
tp42
g1
(g10
g3
NtRp43
(dp44
g13
F-5.43216357012051
sg14
I10
sg15
I01
sg16
I8
sg17
I26
sbs(I4
I9
tp45
g1
(g10
g3
NtRp46
(dp47
g13
F-2.3361308286015232
sg14
I4
sg15
I01
sg16
I9
sg17
I20
sbs(I2
I9
tp48
g1
(g10
g3
NtRp49
(dp50
g13
F8.7811631438584943
sg14
I2
sg15
I01
sg16
I9
sg17
I18
sbs(I10
I7
tp51
g1
(g10
g3
NtRp52
(dp53
g13
F1.6599614296853766
sg14
I10
sg15
I01
sg16
I7
sg17
I28
sbs(I3
I10
tp54
g1
(g10
g3
NtRp55
(dp56
g13
F1.3477189272729504
sg14
I3
sg15
I01
sg16
I10
sg17
I21
sbs(I12
I6
tp57
g1
(g10
g3
NtRp58
(dp59
g13
F-11.102696254537372
sg14
I12
sg15
I01
sg16
I6
sg17
I41
sbs(I1
I5
tp60
g1
(g10
g3
NtRp61
(dp62
g13
F-2.8337399319246561
sg14
I1
sg15
I01
sg16
I5
sg17
I1
sbs(I3
I6
tp63
g1
(g10
g3
NtRp64
(dp65
g13
F20.135621941615319
sg14
I3
sg15
I01
sg16
I6
sg17
I7
sbs(I10
I9
tp66
g1
(g10
g3
NtRp67
(dp68
g13
F-2.5289868346040496
sg14
I10
sg15
I01
sg16
I9
sg17
I24
sbs(I2
I6
tp69
g1
(g10
g3
NtRp70
(dp71
g13
F-11.695964264153256
sg14
I2
sg15
I00
sg16
I6
sg17
I6
sbs(I4
I5
tp72
g1
(g10
g3
NtRp73
(dp74
g13
F3.8258714277603092
sg14
I4
sg15
I01
sg16
I5
sg17
I4
sbs(I1
I13
tp75
g1
(g10
g3
NtRp76
(dp77
g13
F5.7141119643397911
sg14
I1
sg15
I01
sg16
I13
sg17
I55
sbs(I11
I9
tp78
g1
(g10
g3
NtRp79
(dp80
g13
F11.838834719830905
sg14
I11
sg15
I01
sg16
I9
sg17
I39
sbs(I4
I14
tp81
g1
(g10
g3
NtRp82
(dp83
g13
F2.2010017983067076
sg14
I4
sg15
I01
sg16
I14
sg17
I64
sbs(I3
I9
tp84
g1
(g10
g3
NtRp85
(dp86
g13
F-5.2776423101942047
sg14
I3
sg15
I01
sg16
I9
sg17
I19
sbs(I1
I9
tp87
g1
(g10
g3
NtRp88
(dp89
g13
F-0.062789902851761781
sg14
I1
sg15
I00
sg16
I9
sg17
I17
sbs(I12
I11
tp90
g1
(g10
g3
NtRp91
(dp92
g13
F-2.0456636929307987
sg14
I12
sg15
I01
sg16
I11
sg17
I58
sbs(I3
I5
tp93
g1
(g10
g3
NtRp94
(dp95
g13
F-5.4710139183232425
sg14
I3
sg15
I01
sg16
I5
sg17
I3
sbs(I2
I7
tp96
g1
(g10
g3
NtRp97
(dp98
g13
F-1.9453271573920914
sg14
I2
sg15
I01
sg16
I7
sg17
I10
sbs(I4
I6
tp99
g1
(g10
g3
NtRp100
(dp101
g13
F-5.5648764838045937
sg14
I4
sg15
I01
sg16
I6
sg17
I8
sbs(I14
I7
tp102
g1
(g10
g3
NtRp103
(dp104
g13
F-3.5932063513136243
sg14
I14
sg15
I01
sg16
I7
sg17
I81
sbs(I3
I8
tp105
g1
(g10
g3
NtRp106
(dp107
g13
F0.36784490991528412
sg14
I3
sg15
I00
sg16
I8
sg17
I15
sbs(I1
I8
tp108
g1
(g10
g3
NtRp109
(dp110
g13
F2.905397629936175
sg14
I1
sg15
I01
sg16
I8
sg17
I13
sbs(I1
I7
tp111
g1
(g10
g3
NtRp112
(dp113
g13
F-6.6709639762573838
sg14
I1
sg15
I01
sg16
I7
sg17
I9
sbs(I13
I9
tp114
g1
(g10
g3
NtRp115
(dp116
g13
F-3.1465025591824727
sg14
I13
sg15
I01
sg16
I9
sg17
I54
sbssS'_input_nodes'
p117
I4
sS'_output_nodes'
p118
I5
sS'_node_gene_type'
p119
cneat.genome
NodeGene
p120
sS'_FFChromosome__node_order'
p121
(lp122
I10
aI12
aI11
aI13
aI14
asS'_conn_gene_type'
p123
g10
sS'fitness'
p124
F0.12705525054253261
sS'parent2_id'
p125
I2863
sS'_id'
p126
I2954
sS'parent1_id'
p127
I2851
sS'_node_genes'
p128
(lp129
g1
(g120
g3
NtRp130
(dp131
S'_bias'
p132
I0
sS'_type'
p133
S'INPUT'
p134
sg126
I1
sS'_response'
p135
F4.9242730000000003
sS'_activation_type'
p136
Nsbag1
(g120
g3
NtRp137
(dp138
g132
I0
sg133
g134
sg126
I2
sg135
F4.9242730000000003
sg136
Nsbag1
(g120
g3
NtRp139
(dp140
g132
I0
sg133
g134
sg126
I3
sg135
F4.9242730000000003
sg136
Nsbag1
(g120
g3
NtRp141
(dp142
g132
I0
sg133
g134
sg126
I4
sg135
F4.9242730000000003
sg136
Nsbag1
(g120
g3
NtRp143
(dp144
g132
F0.54720507509498617
sg133
S'OUTPUT'
p145
sg126
I5
sg135
F6.4584910097049182
sg136
S'tanh'
p146
sbag1
(g120
g3
NtRp147
(dp148
g132
F0.018165606580522714
sg133
g145
sg126
I6
sg135
F6.2738464378477286
sg136
g146
sbag1
(g120
g3
NtRp149
(dp150
g132
F-0.61396364411597681
sg133
g145
sg126
I7
sg135
F4.3450166916530257
sg136
g146
sbag1
(g120
g3
NtRp151
(dp152
g132
F1.2587030201660721
sg133
g145
sg126
I8
sg135
F5.4516590834839338
sg136
g146
sbag1
(g120
g3
NtRp153
(dp154
g132
F-0.99869729856736411
sg133
g145
sg126
I9
sg135
F5.7006881026057004
sg136
g146
sbag1
(g120
g3
NtRp155
(dp156
g132
F0.21339443691292967
sg133
S'HIDDEN'
p157
sg126
I10
sg135
F5.2963359348960735
sg136
g146
sbag1
(g120
g3
NtRp158
(dp159
g132
F0.57525642876162275
sg133
g157
sg126
I11
sg135
F4.9122001083972169
sg136
g146
sbag1
(g120
g3
NtRp160
(dp161
g132
F0.2398317298425553
sg133
g157
sg126
I12
sg135
F3.9272603339162653
sg136
g146
sbag1
(g120
g3
NtRp162
(dp163
g132
I0
sg133
g157
sg126
I13
sg135
F4.9242730000000003
sg136
g146
sbag1
(g120
g3
NtRp164
(dp165
g132
I0
sg133
g157
sg126
I14
sg135
F4.9242730000000003
sg136
g146
sbasb.