ccopy_reg
_reconstructor
p1
(cneat.chromosome
FFChromosome
p2
c__builtin__
object
p3
NtRp4
(dp5
S'species_id'
p6
I39
sS'_connection_genes'
p7
(dp8
(I4
I7
tp9
g1
(cneat.genome
ConnectionGene
p10
g3
NtRp11
(dp12
S'_ConnectionGene__weight'
p13
F0.25898475473892257
sS'_ConnectionGene__in'
p14
I4
sS'_ConnectionGene__enabled'
p15
I01
sS'_ConnectionGene__out'
p16
I7
sS'_ConnectionGene__innov_number'
p17
I12
sbs(I4
I8
tp18
g1
(g10
g3
NtRp19
(dp20
g13
F-4.4970337579899313
sg14
I4
sg15
I01
sg16
I8
sg17
I16
sbs(I2
I8
tp21
g1
(g10
g3
NtRp22
(dp23
g13
F0.90961781932648145
sg14
I2
sg15
I01
sg16
I8
sg17
I14
sbs(I1
I15
tp24
g1
(g10
g3
NtRp25
(dp26
g13
F1.4088374844286589
sg14
I1
sg15
I01
sg16
I15
sg17
I70
sbs(I1
I6
tp27
g1
(g10
g3
NtRp28
(dp29
g13
F-4.87058145921619
sg14
I1
sg15
I00
sg16
I6
sg17
I5
sbs(I3
I7
tp30
g1
(g10
g3
NtRp31
(dp32
g13
F3.9081434056770989
sg14
I3
sg15
I01
sg16
I7
sg17
I11
sbs(I2
I5
tp33
g1
(g10
g3
NtRp34
(dp35
g13
F-1.8739086748678511
sg14
I2
sg15
I00
sg16
I5
sg17
I2
sbs(I1
I11
tp36
g1
(g10
g3
NtRp37
(dp38
g13
F4.9131720012985944
sg14
I1
sg15
I01
sg16
I11
sg17
I27
sbs(I11
I10
tp39
g1
(g10
g3
NtRp40
(dp41
g13
F-1.6512881749335027
sg14
I11
sg15
I01
sg16
I10
sg17
I36
sbs(I4
I9
tp42
g1
(g10
g3
NtRp43
(dp44
g13
F-5.6974244391905575
sg14
I4
sg15
I01
sg16
I9
sg17
I20
sbs(I2
I9
tp45
g1
(g10
g3
NtRp46
(dp47
g13
F2.627383240627831
sg14
I2
sg15
I01
sg16
I9
sg17
I18
sbs(I1
I14
tp48
g1
(g10
g3
NtRp49
(dp50
g13
F1.8293728177788924
sg14
I1
sg15
I00
sg16
I14
sg17
I82
sbs(I12
I6
tp51
g1
(g10
g3
NtRp52
(dp53
g13
F0.58708560458176695
sg14
I12
sg15
I01
sg16
I6
sg17
I49
sbs(I1
I5
tp54
g1
(g10
g3
NtRp55
(dp56
g13
F-6.5818372527376594
sg14
I1
sg15
I01
sg16
I5
sg17
I1
sbs(I2
I13
tp57
g1
(g10
g3
NtRp58
(dp59
g13
F1.5667515722085974
sg14
I2
sg15
I01
sg16
I13
sg17
I57
sbs(I13
I7
tp60
g1
(g10
g3
NtRp61
(dp62
g13
F-7.3378231105950498
sg14
I13
sg15
I01
sg16
I7
sg17
I58
sbs(I3
I6
tp63
g1
(g10
g3
NtRp64
(dp65
g13
F4.2019376168713638
sg14
I3
sg15
I01
sg16
I6
sg17
I7
sbs(I1
I10
tp66
g1
(g10
g3
NtRp67
(dp68
g13
F6.1931033033173604
sg14
I1
sg15
I00
sg16
I10
sg17
I21
sbs(I2
I6
tp69
g1
(g10
g3
NtRp70
(dp71
g13
F-0.46452712159225251
sg14
I2
sg15
I01
sg16
I6
sg17
I6
sbs(I4
I5
tp72
g1
(g10
g3
NtRp73
(dp74
g13
F-4.2898771298554008
sg14
I4
sg15
I01
sg16
I5
sg17
I4
sbs(I2
I10
tp75
g1
(g10
g3
NtRp76
(dp77
g13
F-2.0215019564048533
sg14
I2
sg15
I01
sg16
I10
sg17
I23
sbs(I3
I9
tp78
g1
(g10
g3
NtRp79
(dp80
g13
F-9.9631060220142391
sg14
I3
sg15
I01
sg16
I9
sg17
I19
sbs(I1
I9
tp81
g1
(g10
g3
NtRp82
(dp83
g13
F-0.95100918153207992
sg14
I1
sg15
I01
sg16
I9
sg17
I17
sbs(I15
I14
tp84
g1
(g10
g3
NtRp85
(dp86
g13
F-0.56332906498080071
sg14
I15
sg15
I01
sg16
I14
sg17
I103
sbs(I3
I5
tp87
g1
(g10
g3
NtRp88
(dp89
g13
F-5.5778551654627559
sg14
I3
sg15
I01
sg16
I5
sg17
I3
sbs(I2
I7
tp90
g1
(g10
g3
NtRp91
(dp92
g13
F-12.785668045360747
sg14
I2
sg15
I00
sg16
I7
sg17
I10
sbs(I10
I5
tp93
g1
(g10
g3
NtRp94
(dp95
g13
F3.2340618020144474
sg14
I10
sg15
I00
sg16
I5
sg17
I26
sbs(I4
I6
tp96
g1
(g10
g3
NtRp97
(dp98
g13
F-1.6199159122502005
sg14
I4
sg15
I01
sg16
I6
sg17
I8
sbs(I1
I12
tp99
g1
(g10
g3
NtRp100
(dp101
g13
F-5.9337373703726906
sg14
I1
sg15
I01
sg16
I12
sg17
I52
sbs(I13
I14
tp102
g1
(g10
g3
NtRp103
(dp104
g13
F-5.0703639150134538
sg14
I13
sg15
I01
sg16
I14
sg17
I97
sbs(I2
I11
tp105
g1
(g10
g3
NtRp106
(dp107
g13
F3.247079398385833
sg14
I2
sg15
I01
sg16
I11
sg17
I33
sbs(I3
I8
tp108
g1
(g10
g3
NtRp109
(dp110
g13
F-8.362896664892542
sg14
I3
sg15
I01
sg16
I8
sg17
I15
sbs(I1
I8
tp111
g1
(g10
g3
NtRp112
(dp113
g13
F0.90230129033864293
sg14
I1
sg15
I01
sg16
I8
sg17
I13
sbs(I10
I14
tp114
g1
(g10
g3
NtRp115
(dp116
g13
F0.25431610756535195
sg14
I10
sg15
I01
sg16
I14
sg17
I64
sbs(I14
I5
tp117
g1
(g10
g3
NtRp118
(dp119
g13
F-0.24713529872281614
sg14
I14
sg15
I01
sg16
I5
sg17
I65
sbs(I1
I7
tp120
g1
(g10
g3
NtRp121
(dp122
g13
F-6.0289728640032445
sg14
I1
sg15
I01
sg16
I7
sg17
I9
sbs(I14
I8
tp123
g1
(g10
g3
NtRp124
(dp125
g13
F0.16718023342749055
sg14
I14
sg15
I01
sg16
I8
sg17
I62
sbssS'_input_nodes'
p126
I4
sS'_output_nodes'
p127
I5
sS'_node_gene_type'
p128
cneat.genome
NodeGene
p129
sS'_FFChromosome__node_order'
p130
(lp131
I11
aI13
aI15
aI10
aI12
aI14
asS'_conn_gene_type'
p132
g10
sS'fitness'
p133
F0.12604511291451601
sS'parent2_id'
p134
I2067
sS'_id'
p135
I2169
sS'parent1_id'
p136
I2067
sS'_node_genes'
p137
(lp138
g1
(g129
g3
NtRp139
(dp140
S'_bias'
p141
I0
sS'_type'
p142
S'INPUT'
p143
sg135
I1
sS'_response'
p144
F4.9242730000000003
sS'_activation_type'
p145
Nsbag1
(g129
g3
NtRp146
(dp147
g141
I0
sg142
g143
sg135
I2
sg144
F4.9242730000000003
sg145
Nsbag1
(g129
g3
NtRp148
(dp149
g141
I0
sg142
g143
sg135
I3
sg144
F4.9242730000000003
sg145
Nsbag1
(g129
g3
NtRp150
(dp151
g141
I0
sg142
g143
sg135
I4
sg144
F4.9242730000000003
sg145
Nsbag1
(g129
g3
NtRp152
(dp153
g141
F-0.68872730099708657
sg142
S'OUTPUT'
p154
sg135
I5
sg144
F3.8376045620573009
sg145
S'tanh'
p155
sbag1
(g129
g3
NtRp156
(dp157
g141
F-0.064806638273738448
sg142
g154
sg135
I6
sg144
F5.2007211039188999
sg145
g155
sbag1
(g129
g3
NtRp158
(dp159
g141
F0.072449297007452423
sg142
g154
sg135
I7
sg144
F4.622038816465448
sg145
g155
sbag1
(g129
g3
NtRp160
(dp161
g141
F-0.68096139925284471
sg142
g154
sg135
I8
sg144
F4.9242730000000003
sg145
g155
sbag1
(g129
g3
NtRp162
(dp163
g141
F0.8352234173755565
sg142
g154
sg135
I9
sg144
F5.3082182938047424
sg145
g155
sbag1
(g129
g3
NtRp164
(dp165
g141
I0
sg142
S'HIDDEN'
p166
sg135
I10
sg144
F5.1646028676151108
sg145
g155
sbag1
(g129
g3
NtRp167
(dp168
g141
F0.2150448489456748
sg142
g166
sg135
I11
sg144
F4.9242730000000003
sg145
g155
sbag1
(g129
g3
NtRp169
(dp170
g141
I0
sg142
g166
sg135
I12
sg144
F4.4797627077157358
sg145
g155
sbag1
(g129
g3
NtRp171
(dp172
g141
F0.9281534316435518
sg142
g166
sg135
I13
sg144
F4.0536095033668964
sg145
g155
sbag1
(g129
g3
NtRp173
(dp174
g141
I0
sg142
g166
sg135
I14
sg144
F6.472963716185566
sg145
g155
sbag1
(g129
g3
NtRp175
(dp176
g141
F-0.20115842260861305
sg142
g166
sg135
I15
sg144
F4.9242730000000003
sg145
g155
sbasb.