ccopy_reg
_reconstructor
p1
(cneat.chromosome
FFChromosome
p2
c__builtin__
object
p3
NtRp4
(dp5
S'species_id'
p6
I34
sS'_connection_genes'
p7
(dp8
(I3
I15
tp9
g1
(cneat.genome
ConnectionGene
p10
g3
NtRp11
(dp12
S'_ConnectionGene__weight'
p13
F2.5224044993556398
sS'_ConnectionGene__in'
p14
I3
sS'_ConnectionGene__enabled'
p15
I01
sS'_ConnectionGene__out'
p16
I15
sS'_ConnectionGene__innov_number'
p17
I81
sbs(I4
I7
tp18
g1
(g10
g3
NtRp19
(dp20
g13
F3.4249415726873487
sg14
I4
sg15
I01
sg16
I7
sg17
I12
sbs(I10
I11
tp21
g1
(g10
g3
NtRp22
(dp23
g13
F3.5936469447365598
sg14
I10
sg15
I01
sg16
I11
sg17
I52
sbs(I4
I8
tp24
g1
(g10
g3
NtRp25
(dp26
g13
F-0.58293024217305289
sg14
I4
sg15
I01
sg16
I8
sg17
I16
sbs(I2
I8
tp27
g1
(g10
g3
NtRp28
(dp29
g13
F2.8117615643660865
sg14
I2
sg15
I01
sg16
I8
sg17
I14
sbs(I3
I11
tp30
g1
(g10
g3
NtRp31
(dp32
g13
F3.9652920959175684
sg14
I3
sg15
I00
sg16
I11
sg17
I32
sbs(I14
I5
tp33
g1
(g10
g3
NtRp34
(dp35
g13
F9.1219351537614184
sg14
I14
sg15
I01
sg16
I5
sg17
I70
sbs(I1
I6
tp36
g1
(g10
g3
NtRp37
(dp38
g13
F-1.6839052743120777
sg14
I1
sg15
I01
sg16
I6
sg17
I5
sbs(I3
I7
tp39
g1
(g10
g3
NtRp40
(dp41
g13
F-9.1702503033483875
sg14
I3
sg15
I00
sg16
I7
sg17
I11
sbs(I2
I5
tp42
g1
(g10
g3
NtRp43
(dp44
g13
F-2.6794779918725702
sg14
I2
sg15
I01
sg16
I5
sg17
I2
sbs(I1
I11
tp45
g1
(g10
g3
NtRp46
(dp47
g13
F3.9985374517508325
sg14
I1
sg15
I01
sg16
I11
sg17
I38
sbs(I12
I9
tp48
g1
(g10
g3
NtRp49
(dp50
g13
F-1.6614671376245396
sg14
I12
sg15
I01
sg16
I9
sg17
I37
sbs(I3
I14
tp51
g1
(g10
g3
NtRp52
(dp53
g13
F-5.4213602785063628
sg14
I3
sg15
I01
sg16
I14
sg17
I69
sbs(I4
I9
tp54
g1
(g10
g3
NtRp55
(dp56
g13
F1.2864086952012359
sg14
I4
sg15
I01
sg16
I9
sg17
I20
sbs(I2
I9
tp57
g1
(g10
g3
NtRp58
(dp59
g13
F-4.9349186158898597
sg14
I2
sg15
I01
sg16
I9
sg17
I18
sbs(I11
I5
tp60
g1
(g10
g3
NtRp61
(dp62
g13
F0.89999289706643237
sg14
I11
sg15
I01
sg16
I5
sg17
I33
sbs(I3
I10
tp63
g1
(g10
g3
NtRp64
(dp65
g13
F-2.2443980169683395
sg14
I3
sg15
I01
sg16
I10
sg17
I23
sbs(I1
I5
tp66
g1
(g10
g3
NtRp67
(dp68
g13
F-6.4095899431715679
sg14
I1
sg15
I01
sg16
I5
sg17
I1
sbs(I2
I13
tp69
g1
(g10
g3
NtRp70
(dp71
g13
F-2.5664277976133487
sg14
I2
sg15
I01
sg16
I13
sg17
I55
sbs(I3
I6
tp72
g1
(g10
g3
NtRp73
(dp74
g13
F9.714265364644314
sg14
I3
sg15
I01
sg16
I6
sg17
I7
sbs(I10
I9
tp75
g1
(g10
g3
NtRp76
(dp77
g13
F9.3811922177949185
sg14
I10
sg15
I01
sg16
I9
sg17
I22
sbs(I4
I10
tp78
g1
(g10
g3
NtRp79
(dp80
g13
F1.5107100142722527
sg14
I4
sg15
I01
sg16
I10
sg17
I25
sbs(I2
I6
tp81
g1
(g10
g3
NtRp82
(dp83
g13
F-2.5437178113874896
sg14
I2
sg15
I00
sg16
I6
sg17
I6
sbs(I4
I5
tp84
g1
(g10
g3
NtRp85
(dp86
g13
F4.0052279366871266
sg14
I4
sg15
I01
sg16
I5
sg17
I4
sbs(I13
I6
tp87
g1
(g10
g3
NtRp88
(dp89
g13
F-2.0135653018412141
sg14
I13
sg15
I01
sg16
I6
sg17
I56
sbs(I3
I9
tp90
g1
(g10
g3
NtRp91
(dp92
g13
F-5.4852293437081405
sg14
I3
sg15
I00
sg16
I9
sg17
I19
sbs(I1
I9
tp93
g1
(g10
g3
NtRp94
(dp95
g13
F-1.5529266124686076
sg14
I1
sg15
I01
sg16
I9
sg17
I17
sbs(I12
I11
tp96
g1
(g10
g3
NtRp97
(dp98
g13
F-7.292729260633279
sg14
I12
sg15
I01
sg16
I11
sg17
I57
sbs(I4
I11
tp99
g1
(g10
g3
NtRp100
(dp101
g13
F-3.0708963798440934
sg14
I4
sg15
I01
sg16
I11
sg17
I35
sbs(I3
I5
tp102
g1
(g10
g3
NtRp103
(dp104
g13
F2.0571379216795425
sg14
I3
sg15
I00
sg16
I5
sg17
I3
sbs(I2
I7
tp105
g1
(g10
g3
NtRp106
(dp107
g13
F-3.7212772058199537
sg14
I2
sg15
I01
sg16
I7
sg17
I10
sbs(I3
I12
tp108
g1
(g10
g3
NtRp109
(dp110
g13
F0.66614273174595251
sg14
I3
sg15
I01
sg16
I12
sg17
I45
sbs(I4
I6
tp111
g1
(g10
g3
NtRp112
(dp113
g13
F-0.84936853595212591
sg14
I4
sg15
I01
sg16
I6
sg17
I8
sbs(I11
I8
tp114
g1
(g10
g3
NtRp115
(dp116
g13
F0.28595983382842616
sg14
I11
sg15
I01
sg16
I8
sg17
I31
sbs(I3
I8
tp117
g1
(g10
g3
NtRp118
(dp119
g13
F-7.4281455499321076
sg14
I3
sg15
I01
sg16
I8
sg17
I15
sbs(I1
I8
tp120
g1
(g10
g3
NtRp121
(dp122
g13
F3.4543605369764427
sg14
I1
sg15
I01
sg16
I8
sg17
I13
sbs(I1
I7
tp123
g1
(g10
g3
NtRp124
(dp125
g13
F1.6928192584742383
sg14
I1
sg15
I01
sg16
I7
sg17
I9
sbs(I14
I8
tp126
g1
(g10
g3
NtRp127
(dp128
g13
F0.36625868167715714
sg14
I14
sg15
I01
sg16
I8
sg17
I66
sbs(I15
I7
tp129
g1
(g10
g3
NtRp130
(dp131
g13
F-7.9347066060266016
sg14
I15
sg15
I01
sg16
I7
sg17
I78
sbssS'_input_nodes'
p132
I4
sS'_output_nodes'
p133
I5
sS'_node_gene_type'
p134
cneat.genome
NodeGene
p135
sS'_FFChromosome__node_order'
p136
(lp137
I10
aI12
aI11
aI13
aI15
aI14
asS'_conn_gene_type'
p138
g10
sS'fitness'
p139
F0.12179649705669254
sS'parent2_id'
p140
I2161
sS'_id'
p141
I2253
sS'parent1_id'
p142
I2163
sS'_node_genes'
p143
(lp144
g1
(g135
g3
NtRp145
(dp146
S'_bias'
p147
I0
sS'_type'
p148
S'INPUT'
p149
sg141
I1
sS'_response'
p150
F4.9242730000000003
sS'_activation_type'
p151
Nsbag1
(g135
g3
NtRp152
(dp153
g147
I0
sg148
g149
sg141
I2
sg150
F4.9242730000000003
sg151
Nsbag1
(g135
g3
NtRp154
(dp155
g147
I0
sg148
g149
sg141
I3
sg150
F4.9242730000000003
sg151
Nsbag1
(g135
g3
NtRp156
(dp157
g147
I0
sg148
g149
sg141
I4
sg150
F4.9242730000000003
sg151
Nsbag1
(g135
g3
NtRp158
(dp159
g147
F-0.7079619621486638
sg148
S'OUTPUT'
p160
sg141
I5
sg150
F4.6890691179673585
sg151
S'tanh'
p161
sbag1
(g135
g3
NtRp162
(dp163
g147
F-0.099271797896160252
sg148
g160
sg141
I6
sg150
F4.2092802410121779
sg151
g161
sbag1
(g135
g3
NtRp164
(dp165
g147
F-0.38186215280158148
sg148
g160
sg141
I7
sg150
F4.657628124344356
sg151
g161
sbag1
(g135
g3
NtRp166
(dp167
g147
F-0.24740264265453552
sg148
g160
sg141
I8
sg150
F4.7871352573269936
sg151
g161
sbag1
(g135
g3
NtRp168
(dp169
g147
F0.58967445302445309
sg148
g160
sg141
I9
sg150
F5.094174258219426
sg151
g161
sbag1
(g135
g3
NtRp170
(dp171
g147
I0
sg148
S'HIDDEN'
p172
sg141
I10
sg150
F4.3729251472545876
sg151
g161
sbag1
(g135
g3
NtRp173
(dp174
g147
F-0.42507175969441485
sg148
g172
sg141
I11
sg150
F4.9242730000000003
sg151
g161
sbag1
(g135
g3
NtRp175
(dp176
g147
F-0.025687505451785754
sg148
g172
sg141
I12
sg150
F5.9350271768254537
sg151
g161
sbag1
(g135
g3
NtRp177
(dp178
g147
I0
sg148
g172
sg141
I13
sg150
F5.9977388040039195
sg151
g161
sbag1
(g135
g3
NtRp179
(dp180
g147
I0
sg148
g172
sg141
I14
sg150
F4.2659631280801129
sg151
g161
sbag1
(g135
g3
NtRp181
(dp182
g147
I0
sg148
g172
sg141
I15
sg150
F4.9242730000000003
sg151
g161
sbasb.