ccopy_reg
_reconstructor
p1
(cneat.chromosome
FFChromosome
p2
c__builtin__
object
p3
NtRp4
(dp5
S'species_id'
p6
I63
sS'_connection_genes'
p7
(dp8
(I3
I15
tp9
g1
(cneat.genome
ConnectionGene
p10
g3
NtRp11
(dp12
S'_ConnectionGene__weight'
p13
F1.4103540006512849
sS'_ConnectionGene__in'
p14
I3
sS'_ConnectionGene__enabled'
p15
I01
sS'_ConnectionGene__out'
p16
I15
sS'_ConnectionGene__innov_number'
p17
I81
sbs(I4
I7
tp18
g1
(g10
g3
NtRp19
(dp20
g13
F2.9126029118093575
sg14
I4
sg15
I01
sg16
I7
sg17
I12
sbs(I10
I11
tp21
g1
(g10
g3
NtRp22
(dp23
g13
F1.5724238578648244
sg14
I10
sg15
I00
sg16
I11
sg17
I52
sbs(I10
I17
tp24
g1
(g10
g3
NtRp25
(dp26
g13
F1
sg14
I10
sg15
I01
sg16
I17
sg17
I115
sbs(I4
I8
tp27
g1
(g10
g3
NtRp28
(dp29
g13
F-0.86897105512044504
sg14
I4
sg15
I01
sg16
I8
sg17
I16
sbs(I2
I8
tp30
g1
(g10
g3
NtRp31
(dp32
g13
F4.8782720626693106
sg14
I2
sg15
I01
sg16
I8
sg17
I14
sbs(I3
I11
tp33
g1
(g10
g3
NtRp34
(dp35
g13
F5.2940306187388355
sg14
I3
sg15
I00
sg16
I11
sg17
I32
sbs(I1
I6
tp36
g1
(g10
g3
NtRp37
(dp38
g13
F-0.84460651437435674
sg14
I1
sg15
I01
sg16
I6
sg17
I5
sbs(I18
I8
tp39
g1
(g10
g3
NtRp40
(dp41
g13
F1.2021338270019408
sg14
I18
sg15
I01
sg16
I8
sg17
I143
sbs(I3
I7
tp42
g1
(g10
g3
NtRp43
(dp44
g13
F-8.2803562094909591
sg14
I3
sg15
I00
sg16
I7
sg17
I11
sbs(I2
I5
tp45
g1
(g10
g3
NtRp46
(dp47
g13
F-4.289941898142084
sg14
I2
sg15
I01
sg16
I5
sg17
I2
sbs(I1
I11
tp48
g1
(g10
g3
NtRp49
(dp50
g13
F4.2682896040499676
sg14
I1
sg15
I01
sg16
I11
sg17
I38
sbs(I12
I9
tp51
g1
(g10
g3
NtRp52
(dp53
g13
F-0.10217122828525671
sg14
I12
sg15
I01
sg16
I9
sg17
I37
sbs(I19
I11
tp54
g1
(g10
g3
NtRp55
(dp56
g13
F5.2940306187388355
sg14
I19
sg15
I01
sg16
I11
sg17
I130
sbs(I3
I14
tp57
g1
(g10
g3
NtRp58
(dp59
g13
F-2.8709730528211632
sg14
I3
sg15
I01
sg16
I14
sg17
I69
sbs(I1
I18
tp60
g1
(g10
g3
NtRp61
(dp62
g13
F1
sg14
I1
sg15
I01
sg16
I18
sg17
I126
sbs(I4
I9
tp63
g1
(g10
g3
NtRp64
(dp65
g13
F5.5071658133043062
sg14
I4
sg15
I01
sg16
I9
sg17
I20
sbs(I14
I5
tp66
g1
(g10
g3
NtRp67
(dp68
g13
F6.3917237112794307
sg14
I14
sg15
I01
sg16
I5
sg17
I70
sbs(I11
I5
tp69
g1
(g10
g3
NtRp70
(dp71
g13
F3.4105030996779679
sg14
I11
sg15
I01
sg16
I5
sg17
I33
sbs(I3
I10
tp72
g1
(g10
g3
NtRp73
(dp74
g13
F-5.7813289574335931
sg14
I3
sg15
I01
sg16
I10
sg17
I23
sbs(I17
I11
tp75
g1
(g10
g3
NtRp76
(dp77
g13
F1.5724238578648244
sg14
I17
sg15
I01
sg16
I11
sg17
I116
sbs(I1
I16
tp78
g1
(g10
g3
NtRp79
(dp80
g13
F3.2539729367101513
sg14
I1
sg15
I01
sg16
I16
sg17
I94
sbs(I18
I7
tp81
g1
(g10
g3
NtRp82
(dp83
g13
F0.88697443276660937
sg14
I18
sg15
I01
sg16
I7
sg17
I127
sbs(I1
I5
tp84
g1
(g10
g3
NtRp85
(dp86
g13
F-0.58618252902343793
sg14
I1
sg15
I01
sg16
I5
sg17
I1
sbs(I2
I13
tp87
g1
(g10
g3
NtRp88
(dp89
g13
F-2.6143439357660636
sg14
I2
sg15
I01
sg16
I13
sg17
I55
sbs(I16
I7
tp90
g1
(g10
g3
NtRp91
(dp92
g13
F0.54529179574236153
sg14
I16
sg15
I01
sg16
I7
sg17
I95
sbs(I3
I6
tp93
g1
(g10
g3
NtRp94
(dp95
g13
F7.73573949753255
sg14
I3
sg15
I01
sg16
I6
sg17
I7
sbs(I2
I9
tp96
g1
(g10
g3
NtRp97
(dp98
g13
F-4.3163589518926262
sg14
I2
sg15
I01
sg16
I9
sg17
I18
sbs(I10
I9
tp99
g1
(g10
g3
NtRp100
(dp101
g13
F13.281903006813302
sg14
I10
sg15
I01
sg16
I9
sg17
I22
sbs(I4
I10
tp102
g1
(g10
g3
NtRp103
(dp104
g13
F1.9152248495170581
sg14
I4
sg15
I01
sg16
I10
sg17
I25
sbs(I2
I6
tp105
g1
(g10
g3
NtRp106
(dp107
g13
F-2.4642551680801477
sg14
I2
sg15
I00
sg16
I6
sg17
I6
sbs(I4
I5
tp108
g1
(g10
g3
NtRp109
(dp110
g13
F3.7527378714615867
sg14
I4
sg15
I01
sg16
I5
sg17
I4
sbs(I13
I6
tp111
g1
(g10
g3
NtRp112
(dp113
g13
F-1.0910899082542267
sg14
I13
sg15
I01
sg16
I6
sg17
I56
sbs(I3
I9
tp114
g1
(g10
g3
NtRp115
(dp116
g13
F-2.1528835388394421
sg14
I3
sg15
I00
sg16
I9
sg17
I19
sbs(I3
I19
tp117
g1
(g10
g3
NtRp118
(dp119
g13
F1
sg14
I3
sg15
I01
sg16
I19
sg17
I132
sbs(I12
I11
tp120
g1
(g10
g3
NtRp121
(dp122
g13
F-5.4397150026364249
sg14
I12
sg15
I01
sg16
I11
sg17
I57
sbs(I4
I11
tp123
g1
(g10
g3
NtRp124
(dp125
g13
F-5.9698334182524633
sg14
I4
sg15
I01
sg16
I11
sg17
I35
sbs(I3
I5
tp126
g1
(g10
g3
NtRp127
(dp128
g13
F3.6738761452084003
sg14
I3
sg15
I00
sg16
I5
sg17
I3
sbs(I2
I7
tp129
g1
(g10
g3
NtRp130
(dp131
g13
F-4.5613494058364434
sg14
I2
sg15
I01
sg16
I7
sg17
I10
sbs(I15
I7
tp132
g1
(g10
g3
NtRp133
(dp134
g13
F-5.0460682867001996
sg14
I15
sg15
I01
sg16
I7
sg17
I78
sbs(I3
I12
tp135
g1
(g10
g3
NtRp136
(dp137
g13
F-4.5560144069121851
sg14
I3
sg15
I01
sg16
I12
sg17
I45
sbs(I4
I6
tp138
g1
(g10
g3
NtRp139
(dp140
g13
F2.4464408200270809
sg14
I4
sg15
I01
sg16
I6
sg17
I8
sbs(I11
I8
tp141
g1
(g10
g3
NtRp142
(dp143
g13
F-2.501946794554383
sg14
I11
sg15
I01
sg16
I8
sg17
I31
sbs(I3
I8
tp144
g1
(g10
g3
NtRp145
(dp146
g13
F-6.0403483368584716
sg14
I3
sg15
I01
sg16
I8
sg17
I15
sbs(I1
I8
tp147
g1
(g10
g3
NtRp148
(dp149
g13
F1.4753899962474148
sg14
I1
sg15
I01
sg16
I8
sg17
I13
sbs(I1
I7
tp150
g1
(g10
g3
NtRp151
(dp152
g13
F0.88697443276660937
sg14
I1
sg15
I00
sg16
I7
sg17
I9
sbs(I14
I8
tp153
g1
(g10
g3
NtRp154
(dp155
g13
F-3.8862116885491043
sg14
I14
sg15
I01
sg16
I8
sg17
I66
sbs(I1
I9
tp156
g1
(g10
g3
NtRp157
(dp158
g13
F-3.3328727371943909
sg14
I1
sg15
I01
sg16
I9
sg17
I17
sbssS'_input_nodes'
p159
I4
sS'_output_nodes'
p160
I5
sS'_node_gene_type'
p161
cneat.genome
NodeGene
p162
sS'_FFChromosome__node_order'
p163
(lp164
I10
aI19
aI12
aI17
aI11
aI13
aI15
aI18
aI14
aI16
asS'_conn_gene_type'
p165
g10
sS'fitness'
p166
F0.12110589115479092
sS'parent2_id'
p167
I2793
sS'_id'
p168
I2901
sS'parent1_id'
p169
I2793
sS'_node_genes'
p170
(lp171
g1
(g162
g3
NtRp172
(dp173
S'_bias'
p174
I0
sS'_type'
p175
S'INPUT'
p176
sg168
I1
sS'_response'
p177
F4.9242730000000003
sS'_activation_type'
p178
Nsbag1
(g162
g3
NtRp179
(dp180
g174
I0
sg175
g176
sg168
I2
sg177
F4.9242730000000003
sg178
Nsbag1
(g162
g3
NtRp181
(dp182
g174
I0
sg175
g176
sg168
I3
sg177
F4.9242730000000003
sg178
Nsbag1
(g162
g3
NtRp183
(dp184
g174
I0
sg175
g176
sg168
I4
sg177
F4.9242730000000003
sg178
Nsbag1
(g162
g3
NtRp185
(dp186
g174
F-0.03034522156523789
sg175
S'OUTPUT'
p187
sg168
I5
sg177
F4.6890691179673585
sg178
S'tanh'
p188
sbag1
(g162
g3
NtRp189
(dp190
g174
F0.46261164404341959
sg175
g187
sg168
I6
sg177
F4.2092802410121779
sg178
g188
sbag1
(g162
g3
NtRp191
(dp192
g174
F0.75334407825466498
sg175
g187
sg168
I7
sg177
F4.657628124344356
sg178
g188
sbag1
(g162
g3
NtRp193
(dp194
g174
F-0.35595869032302135
sg175
g187
sg168
I8
sg177
F4.7871352573269936
sg178
g188
sbag1
(g162
g3
NtRp195
(dp196
g174
F0.58967445302445309
sg175
g187
sg168
I9
sg177
F5.094174258219426
sg178
g188
sbag1
(g162
g3
NtRp197
(dp198
g174
F0.84707485105456515
sg175
S'HIDDEN'
p199
sg168
I10
sg177
F6.2189205091697879
sg178
g188
sbag1
(g162
g3
NtRp200
(dp201
g174
F-1.1267278966416763
sg175
g199
sg168
I11
sg177
F4.5555028412310801
sg178
g188
sbag1
(g162
g3
NtRp202
(dp203
g174
F0.15210845815548299
sg175
g199
sg168
I12
sg177
F5.3309624884540456
sg178
g188
sbag1
(g162
g3
NtRp204
(dp205
g174
I0
sg175
g199
sg168
I13
sg177
F5.8929157442169684
sg178
g188
sbag1
(g162
g3
NtRp206
(dp207
g174
I0
sg175
g199
sg168
I14
sg177
F5.0816788906214594
sg178
g188
sbag1
(g162
g3
NtRp208
(dp209
g174
F0.12981907415095012
sg175
g199
sg168
I15
sg177
F5.029519105247152
sg178
g188
sbag1
(g162
g3
NtRp210
(dp211
g174
I0
sg175
g199
sg168
I16
sg177
F4.9242730000000003
sg178
g188
sbag1
(g162
g3
NtRp212
(dp213
g174
I0
sg175
g199
sg168
I17
sg177
F4.9242730000000003
sg178
g188
sbag1
(g162
g3
NtRp214
(dp215
g174
I0
sg175
g199
sg168
I18
sg177
F4.9242730000000003
sg178
g188
sbag1
(g162
g3
NtRp216
(dp217
g174
I0
sg175
g199
sg168
I19
sg177
F4.9242730000000003
sg178
g188
sbasb.