ccopy_reg
_reconstructor
p1
(cneat.chromosome
FFChromosome
p2
c__builtin__
object
p3
NtRp4
(dp5
S'species_id'
p6
I1
sS'_connection_genes'
p7
(dp8
(I2
I8
tp9
g1
(cneat.genome
ConnectionGene
p10
g3
NtRp11
(dp12
S'_ConnectionGene__weight'
p13
F1.4736015567189398
sS'_ConnectionGene__in'
p14
I2
sS'_ConnectionGene__enabled'
p15
I01
sS'_ConnectionGene__out'
p16
I8
sS'_ConnectionGene__innov_number'
p17
I14
sbs(I9
I8
tp18
g1
(g10
g3
NtRp19
(dp20
g13
F1.1921946880381806
sg14
I9
sg15
I00
sg16
I8
sg17
I20
sbs(I1
I6
tp21
g1
(g10
g3
NtRp22
(dp23
g13
F6.0481421269726727
sg14
I1
sg15
I00
sg16
I6
sg17
I7
sbs(I9
I4
tp24
g1
(g10
g3
NtRp25
(dp26
g13
F-1.1473452537978299
sg14
I9
sg15
I01
sg16
I4
sg17
I22
sbs(I3
I7
tp27
g1
(g10
g3
NtRp28
(dp29
g13
F-1.6650127321985579
sg14
I3
sg15
I01
sg16
I7
sg17
I12
sbs(I2
I5
tp30
g1
(g10
g3
NtRp31
(dp32
g13
F-0.38828978426920013
sg14
I2
sg15
I01
sg16
I5
sg17
I5
sbs(I1
I11
tp33
g1
(g10
g3
NtRp34
(dp35
g13
F1
sg14
I1
sg15
I01
sg16
I11
sg17
I32
sbs(I10
I8
tp36
g1
(g10
g3
NtRp37
(dp38
g13
F1.1921946880381806
sg14
I10
sg15
I01
sg16
I8
sg17
I29
sbs(I10
I7
tp39
g1
(g10
g3
NtRp40
(dp41
g13
F-0.66444076551644915
sg14
I10
sg15
I01
sg16
I7
sg17
I25
sbs(I1
I5
tp42
g1
(g10
g3
NtRp43
(dp44
g13
F4.4070809743188812
sg14
I1
sg15
I01
sg16
I5
sg17
I4
sbs(I3
I6
tp45
g1
(g10
g3
NtRp46
(dp47
g13
F2.8493534565571648
sg14
I3
sg15
I01
sg16
I6
sg17
I9
sbs(I1
I10
tp48
g1
(g10
g3
NtRp49
(dp50
g13
F0.73625344123922776
sg14
I1
sg15
I01
sg16
I10
sg17
I24
sbs(I2
I6
tp51
g1
(g10
g3
NtRp52
(dp53
g13
F-2.8928702659552004
sg14
I2
sg15
I01
sg16
I6
sg17
I8
sbs(I11
I4
tp54
g1
(g10
g3
NtRp55
(dp56
g13
F0.15422292137837373
sg14
I11
sg15
I01
sg16
I4
sg17
I41
sbs(I1
I4
tp57
g1
(g10
g3
NtRp58
(dp59
g13
F0.98349062354145056
sg14
I1
sg15
I01
sg16
I4
sg17
I1
sbs(I9
I10
tp60
g1
(g10
g3
NtRp61
(dp62
g13
F1
sg14
I9
sg15
I01
sg16
I10
sg17
I47
sbs(I3
I9
tp63
g1
(g10
g3
NtRp64
(dp65
g13
F1
sg14
I3
sg15
I01
sg16
I9
sg17
I19
sbs(I1
I9
tp66
g1
(g10
g3
NtRp67
(dp68
g13
F-0.035075515063312718
sg14
I1
sg15
I01
sg16
I9
sg17
I18
sbs(I9
I6
tp69
g1
(g10
g3
NtRp70
(dp71
g13
F2.8493534565571648
sg14
I9
sg15
I01
sg16
I6
sg17
I21
sbs(I3
I5
tp72
g1
(g10
g3
NtRp73
(dp74
g13
F0.95354142986639778
sg14
I3
sg15
I01
sg16
I5
sg17
I6
sbs(I2
I7
tp75
g1
(g10
g3
NtRp76
(dp77
g13
F0.47455901344142448
sg14
I2
sg15
I01
sg16
I7
sg17
I11
sbs(I2
I11
tp78
g1
(g10
g3
NtRp79
(dp80
g13
F-0.6455969759274941
sg14
I2
sg15
I01
sg16
I11
sg17
I34
sbs(I3
I8
tp81
g1
(g10
g3
NtRp82
(dp83
g13
F4.7386871621349567
sg14
I3
sg15
I01
sg16
I8
sg17
I15
sbs(I1
I8
tp84
g1
(g10
g3
NtRp85
(dp86
g13
F-0.36957197991196894
sg14
I1
sg15
I01
sg16
I8
sg17
I13
sbs(I1
I7
tp87
g1
(g10
g3
NtRp88
(dp89
g13
F-1.0356487040504825
sg14
I1
sg15
I01
sg16
I7
sg17
I10
sbs(I9
I5
tp90
g1
(g10
g3
NtRp91
(dp92
g13
F-1.2129577454138503
sg14
I9
sg15
I01
sg16
I5
sg17
I23
sbs(I3
I4
tp93
g1
(g10
g3
NtRp94
(dp95
g13
F2.1360205731530089
sg14
I3
sg15
I01
sg16
I4
sg17
I3
sbs(I2
I4
tp96
g1
(g10
g3
NtRp97
(dp98
g13
F-0.48844964005182184
sg14
I2
sg15
I01
sg16
I4
sg17
I2
sbs(I11
I6
tp99
g1
(g10
g3
NtRp100
(dp101
g13
F6.0481421269726727
sg14
I11
sg15
I01
sg16
I6
sg17
I39
sbssS'_input_nodes'
p102
I3
sS'_output_nodes'
p103
I5
sS'_node_gene_type'
p104
cneat.genome
NodeGene
p105
sS'_FFChromosome__node_order'
p106
(lp107
I9
aI10
aI11
asS'_conn_gene_type'
p108
g10
sS'fitness'
p109
F0.45205479452054792
sS'parent2_id'
p110
I1838
sS'_id'
p111
I2225
sS'parent1_id'
p112
I1838
sS'_node_genes'
p113
(lp114
g1
(g105
g3
NtRp115
(dp116
S'_bias'
p117
I0
sS'_type'
p118
S'INPUT'
p119
sg111
I1
sS'_response'
p120
F4.9242730000000003
sS'_activation_type'
p121
Nsbag1
(g105
g3
NtRp122
(dp123
g117
I0
sg118
g119
sg111
I2
sg120
F4.9242730000000003
sg121
Nsbag1
(g105
g3
NtRp124
(dp125
g117
I0
sg118
g119
sg111
I3
sg120
F4.9242730000000003
sg121
Nsbag1
(g105
g3
NtRp126
(dp127
g117
I0
sg118
S'OUTPUT'
p128
sg111
I4
sg120
F4.9723482282924802
sg121
S'tanh'
p129
sbag1
(g105
g3
NtRp130
(dp131
g117
I0
sg118
g128
sg111
I5
sg120
F5.6222587944328275
sg121
g129
sbag1
(g105
g3
NtRp132
(dp133
g117
I0
sg118
g128
sg111
I6
sg120
F4.9242730000000003
sg121
g129
sbag1
(g105
g3
NtRp134
(dp135
g117
I0
sg118
g128
sg111
I7
sg120
F4.9242730000000003
sg121
g129
sbag1
(g105
g3
NtRp136
(dp137
g117
F-0.53067798256441456
sg118
g128
sg111
I8
sg120
F6.1936877894887701
sg121
g129
sbag1
(g105
g3
NtRp138
(dp139
g117
I0
sg118
S'HIDDEN'
p140
sg111
I9
sg120
F4.9242730000000003
sg121
g129
sbag1
(g105
g3
NtRp141
(dp142
g117
I0
sg118
g140
sg111
I10
sg120
F4.9242730000000003
sg121
g129
sbag1
(g105
g3
NtRp143
(dp144
g117
I0
sg118
g140
sg111
I11
sg120
F4.9242730000000003
sg121
g129
sbasb.