ccopy_reg
_reconstructor
p1
(cneat.chromosome
FFChromosome
p2
c__builtin__
object
p3
NtRp4
(dp5
S'species_id'
p6
I11
sS'_connection_genes'
p7
(dp8
(I2
I8
tp9
g1
(cneat.genome
ConnectionGene
p10
g3
NtRp11
(dp12
S'_ConnectionGene__weight'
p13
F3.7318198922520871
sS'_ConnectionGene__in'
p14
I2
sS'_ConnectionGene__enabled'
p15
I01
sS'_ConnectionGene__out'
p16
I8
sS'_ConnectionGene__innov_number'
p17
I14
sbs(I3
I11
tp18
g1
(g10
g3
NtRp19
(dp20
g13
F0.48520555089104489
sg14
I3
sg15
I01
sg16
I11
sg17
I31
sbs(I1
I6
tp21
g1
(g10
g3
NtRp22
(dp23
g13
F-1.0440523695998365
sg14
I1
sg15
I01
sg16
I6
sg17
I7
sbs(I9
I4
tp24
g1
(g10
g3
NtRp25
(dp26
g13
F-1.4708821469291837
sg14
I9
sg15
I01
sg16
I4
sg17
I23
sbs(I3
I7
tp27
g1
(g10
g3
NtRp28
(dp29
g13
F6.576571479934004
sg14
I3
sg15
I01
sg16
I7
sg17
I12
sbs(I2
I5
tp30
g1
(g10
g3
NtRp31
(dp32
g13
F-2.0219043213633769
sg14
I2
sg15
I01
sg16
I5
sg17
I5
sbs(I1
I5
tp33
g1
(g10
g3
NtRp34
(dp35
g13
F3.5749553318806284
sg14
I1
sg15
I01
sg16
I5
sg17
I4
sbs(I3
I6
tp36
g1
(g10
g3
NtRp37
(dp38
g13
F1.0426906313759983
sg14
I3
sg15
I00
sg16
I6
sg17
I9
sbs(I1
I10
tp39
g1
(g10
g3
NtRp40
(dp41
g13
F1.2078638107298136
sg14
I1
sg15
I01
sg16
I10
sg17
I24
sbs(I2
I6
tp42
g1
(g10
g3
NtRp43
(dp44
g13
F-3.2446974417217338
sg14
I2
sg15
I01
sg16
I6
sg17
I8
sbs(I1
I4
tp45
g1
(g10
g3
NtRp46
(dp47
g13
F0.30103568338450071
sg14
I1
sg15
I01
sg16
I4
sg17
I1
sbs(I1
I9
tp48
g1
(g10
g3
NtRp49
(dp50
g13
F0.91082620397790559
sg14
I1
sg15
I01
sg16
I9
sg17
I19
sbs(I3
I5
tp51
g1
(g10
g3
NtRp52
(dp53
g13
F-3.7328288035316524
sg14
I3
sg15
I01
sg16
I5
sg17
I6
sbs(I2
I7
tp54
g1
(g10
g3
NtRp55
(dp56
g13
F1.5896221373103239
sg14
I2
sg15
I01
sg16
I7
sg17
I11
sbs(I10
I5
tp57
g1
(g10
g3
NtRp58
(dp59
g13
F2.0602849609611908
sg14
I10
sg15
I01
sg16
I5
sg17
I26
sbs(I1
I12
tp60
g1
(g10
g3
NtRp61
(dp62
g13
F4.2422045424985644
sg14
I1
sg15
I01
sg16
I12
sg17
I43
sbs(I3
I8
tp63
g1
(g10
g3
NtRp64
(dp65
g13
F2.385530549205356
sg14
I3
sg15
I01
sg16
I8
sg17
I15
sbs(I1
I8
tp66
g1
(g10
g3
NtRp67
(dp68
g13
F-6.9317328214414244
sg14
I1
sg15
I01
sg16
I8
sg17
I13
sbs(I12
I4
tp69
g1
(g10
g3
NtRp70
(dp71
g13
F-0.80778254298252339
sg14
I12
sg15
I01
sg16
I4
sg17
I44
sbs(I1
I7
tp72
g1
(g10
g3
NtRp73
(dp74
g13
F-7.285362354020303
sg14
I1
sg15
I01
sg16
I7
sg17
I10
sbs(I3
I4
tp75
g1
(g10
g3
NtRp76
(dp77
g13
F-2.3399748084937162
sg14
I3
sg15
I01
sg16
I4
sg17
I3
sbs(I2
I4
tp78
g1
(g10
g3
NtRp79
(dp80
g13
F-3.5890056313992611
sg14
I2
sg15
I01
sg16
I4
sg17
I2
sbs(I11
I6
tp81
g1
(g10
g3
NtRp82
(dp83
g13
F0.76736397051007876
sg14
I11
sg15
I01
sg16
I6
sg17
I34
sbssS'_input_nodes'
p84
I3
sS'_output_nodes'
p85
I5
sS'_node_gene_type'
p86
cneat.genome
NodeGene
p87
sS'_FFChromosome__node_order'
p88
(lp89
I11
aI10
aI12
aI9
asS'_conn_gene_type'
p90
g10
sS'fitness'
p91
F0.12532515332339431
sS'parent2_id'
p92
I769
sS'_id'
p93
I830
sS'parent1_id'
p94
I766
sS'_node_genes'
p95
(lp96
g1
(g87
g3
NtRp97
(dp98
S'_bias'
p99
I0
sS'_type'
p100
S'INPUT'
p101
sg93
I1
sS'_response'
p102
F4.9242730000000003
sS'_activation_type'
p103
Nsbag1
(g87
g3
NtRp104
(dp105
g99
I0
sg100
g101
sg93
I2
sg102
F4.9242730000000003
sg103
Nsbag1
(g87
g3
NtRp106
(dp107
g99
I0
sg100
g101
sg93
I3
sg102
F4.9242730000000003
sg103
Nsbag1
(g87
g3
NtRp108
(dp109
g99
F-0.24813343549491423
sg100
S'OUTPUT'
p110
sg93
I4
sg102
F4.403401945060347
sg103
S'tanh'
p111
sbag1
(g87
g3
NtRp112
(dp113
g99
F-0.37938549526204007
sg100
g110
sg93
I5
sg102
F5.157184370401465
sg103
g111
sbag1
(g87
g3
NtRp114
(dp115
g99
F-0.27721494620493503
sg100
g110
sg93
I6
sg102
F4.1667142563898949
sg103
g111
sbag1
(g87
g3
NtRp116
(dp117
g99
I0
sg100
g110
sg93
I7
sg102
F4.8866291974786709
sg103
g111
sbag1
(g87
g3
NtRp118
(dp119
g99
F0.31524020745362274
sg100
g110
sg93
I8
sg102
F4.8000515269386268
sg103
g111
sbag1
(g87
g3
NtRp120
(dp121
g99
F0.54101255860507447
sg100
S'HIDDEN'
p122
sg93
I9
sg102
F4.9242730000000003
sg103
g111
sbag1
(g87
g3
NtRp123
(dp124
g99
I0
sg100
g122
sg93
I10
sg102
F4.9242730000000003
sg103
g111
sbag1
(g87
g3
NtRp125
(dp126
g99
I0
sg100
g122
sg93
I11
sg102
F4.9242730000000003
sg103
g111
sbag1
(g87
g3
NtRp127
(dp128
g99
I0
sg100
g122
sg93
I12
sg102
F4.5231708351870807
sg103
g111
sbasb.